Reading package lists...
Building dependency tree...
Reading state information...
genisoimage is already the newest version.
0 upgraded, 0 newly installed, 0 to remove and 1 not upgraded.
Reading package lists...
Building dependency tree...
Reading state information...
libc6-dev-i386 is already the newest version.
0 upgraded, 0 newly installed, 0 to remove and 1 not upgraded.
Generating system call table

Compiling architecture specific assembly files

[GCC    ] source/kernel/arch/i386/src/asm/boot.S
[GCC    ] source/kernel/arch/i386/src/asm/atomic.S
[GCC    ] source/kernel/arch/i386/src/asm/i386.S
[GCC    ] source/kernel/arch/i386/src/asm/isr.S
[GCC    ] source/kernel/arch/i386/src/asm/switch.S
[GCC    ] source/kernel/arch/i386/src/asm/smp_entry.S
[GCC    ] source/kernel/arch/i386/src/asm/network.S
[GCC    ] source/kernel/arch/i386/src/asm/string.S

Compiling architecture specific C files

[GCC    ] source/kernel/arch/i386/src/start.c
[GCC    ] source/kernel/arch/i386/src/screen.c
[GCC    ] source/kernel/arch/i386/src/spinlock.c
[GCC    ] source/kernel/arch/i386/src/gdt.c
[GCC    ] source/kernel/arch/i386/src/cpu.c
[GCC    ] source/kernel/arch/i386/src/interrupt.c
[GCC    ] source/kernel/arch/i386/src/exception.c
[GCC    ] source/kernel/arch/i386/src/debugger.c
[GCC    ] source/kernel/arch/i386/src/thread.c
[GCC    ] source/kernel/arch/i386/src/pit.c
[GCC    ] source/kernel/arch/i386/src/apic.c
[GCC    ] source/kernel/arch/i386/src/syscall.c
[GCC    ] source/kernel/arch/i386/src/fork.c
[GCC    ] source/kernel/arch/i386/src/hwtime.c
[GCC    ] source/kernel/arch/i386/src/fpu.c
[GCC    ] source/kernel/arch/i386/src/mp.c
[GCC    ] source/kernel/arch/i386/src/smp.c
[GCC    ] source/kernel/arch/i386/src/bios.c
[GCC    ] source/kernel/arch/i386/src/signal.c
[GCC    ] source/kernel/arch/i386/src/scheduler.c
[GCC    ] source/kernel/arch/i386/src/mm/pagefault.c
[GCC    ] source/kernel/arch/i386/src/mm/paging.c
[GCC    ] source/kernel/arch/i386/src/mm/context.c
[GCC    ] source/kernel/arch/i386/src/mm/region.c
[GCC    ] source/kernel/arch/i386/src/linker/elf32_module.c
[GCC    ] source/kernel/arch/i386/src/linker/elf32_application.c
[GCC    ] source/kernel/arch/i386/src/x86emu/debug.c
[GCC    ] source/kernel/arch/i386/src/x86emu/decode.c
[GCC    ] source/kernel/arch/i386/src/x86emu/fpu.c
[GCC    ] source/kernel/arch/i386/src/x86emu/ops.c
[GCC    ] source/kernel/arch/i386/src/x86emu/ops2.c
[GCC    ] source/kernel/arch/i386/src/x86emu/prim_ops.c
[GCC    ] source/kernel/arch/i386/src/x86emu/sys.c

Compiling architecture independent files

[GCC    ] source/kernel/src/console.c
[GCC    ] source/kernel/src/kernel.c
[GCC    ] source/kernel/src/process.c
[GCC    ] source/kernel/src/thread.c
[GCC    ] source/kernel/src/irq.c
[GCC    ] source/kernel/src/smp.c
[GCC    ] source/kernel/src/init.c
[GCC    ] source/kernel/src/bootmodule.c
[GCC    ] source/kernel/src/module.c
[GCC    ] source/kernel/src/symbols.c
[GCC    ] source/kernel/src/devices.c
[GCC    ] source/kernel/src/syscall.c
[GCC    ] source/kernel/src/fork.c
[GCC    ] source/kernel/src/loader.c
[GCC    ] source/kernel/src/time.c
[GCC    ] source/kernel/src/version.c
[GCC    ] source/kernel/src/interpreter.c
[GCC    ] source/kernel/src/ipc.c
[GCC    ] source/kernel/src/signal.c
[GCC    ] source/kernel/src/debugger.c
[GCC    ] source/kernel/src/sched/waitqueue.c
[GCC    ] source/kernel/src/sched/scheduler.c
[GCC    ] source/kernel/src/linker/elf.c
[GCC    ] source/kernel/src/linker/elf32.c
[GCC    ] source/kernel/src/mm/pages.c
[GCC    ] source/kernel/src/mm/kmalloc.c
[GCC    ] source/kernel/src/mm/context.c
[GCC    ] source/kernel/src/mm/region.c
[GCC    ] source/kernel/src/mm/sbrk.c
[GCC    ] source/kernel/src/vfs/vfs.c
[GCC    ] source/kernel/src/vfs/rootfs.c
[GCC    ] source/kernel/src/vfs/devfs.c
[GCC    ] source/kernel/src/vfs/inode.c
[GCC    ] source/kernel/src/vfs/io_context.c
[GCC    ] source/kernel/src/vfs/filesystem.c
[GCC    ] source/kernel/src/vfs/blockcache.c
[GCC    ] source/kernel/src/network/interface.c
[GCC    ] source/kernel/src/network/packet.c
[GCC    ] source/kernel/src/network/arp.c
[GCC    ] source/kernel/src/network/ipv4.c
[GCC    ] source/kernel/src/network/icmp.c
[GCC    ] source/kernel/src/network/route.c
[GCC    ] source/kernel/src/network/socket.c
[GCC    ] source/kernel/src/network/tcp.c
[GCC    ] source/kernel/src/lock/context.c
[GCC    ] source/kernel/src/lock/mutex.c
[GCC    ] source/kernel/src/lock/condition.c
[GCC    ] s
Allocating common symbols
Common symbol       size              file

mb_header           0x34              objs/arch/start.o
_X86EMU_intrTab     0x400             objs/x86emu/sys.o
kernel_memory_context
                    0x20              objs/context.o
last_ready          0x4               objs/scheduler.o
kernel_io_context   0x14              objs/vfs.o
thread_table        0x18              objs/thread.o
first_ready         0x4               objs/scheduler.o
first_expired       0x4               objs/scheduler.o
mount_points        0x4               objs/vfs.o
memory_size         0x8               objs/pages.o
memory_pages        0x4               objs/pages.o
module_loader       0x4               objs/module.o
memory_descriptors  0x30              objs/pages.o
sleep_queue         0x8               objs/scheduler.o
region_lock         0x4               objs/region.o
idt                 0x800             objs/arch/interrupt.o
lapic_region        0x4               objs/arch/apic.o
last_expired        0x4               objs/scheduler.o
arch_processor_table
                    0x80              objs/arch/cpu.o
init_thread_id      0x4               objs/init.o
kernel_lock_context
                    0x24              objs/lock/context.o
region_table        0x18              objs/region.o
_X86EMU_env         0x50              objs/x86emu/sys.o
processor_table     0x68              objs/smp.o

Memory Configuration

Name             Origin             Length             Attributes
*default*        0x0000000000000000 0xffffffffffffffff

Linker script and memory map


.text           0x0000000000000000    0x24e85
 *(.multiboot_header)
 .multiboot_header
                0x0000000000000000        0xc objs/arch/boot.o
 *(.text)
 .text          0x000000000000000c      0x113 objs/time.o
                0x000000000000000c                sys_stime
                0x0000000000000034                time
                0x0000000000000060                mktime
                0x00000000000000d8                sys_get_boot_time
                0x00000000000000f0                sys_get_system_time
                0x0000000000000108                sys_get_idle_time
 *fill*         0x000000000000011f        0x1 
 .text          0x0000000000000120      0x13c objs/icmp.o
                0x0000000000000120                icmp_input
 .text          0x000000000000025c       0x54 objs/elf.o
                0x000000000000025c                elf_check_header
 .text          0x00000000000002b0      0x222 objs/kernel.o
                0x00000000000002b0                get_kernel_param_as_string
                0x0000000000000318                get_kernel_param_as_bool
                0x0000000000000388                sys_get_kernel_info
                0x00000000000003d8                sys_get_kernel_statistics
                0x00000000000003e8                sys_dbprintf
                0x0000000000000438                handle_panic
                0x00000000000004a4                reboot
                0x00000000000004ac                sys_reboot
                0x00000000000004bc                shutdown
                0x00000000000004c4                sys_shutdown
 *fill*         0x00000000000004d2        0x2 
 .text          0x00000000000004d4      0x89b objs/rootfs.o
 *fill*         0x0000000000000d6f        0x1 
 .text          0x0000000000000d70      0x12f objs/interface.o
                0x0000000000000df4                ethernet_send_packet
                0x0000000000000e54                network_interface_ioctl
 *fill*         0x0000000000000e9f        0x1 
 .text          0x0000000000000ea0      0x379 objs/arp.o
                0x0000000000000ea8                arp_send_packet
                0x000000000000101c                arp_input
 *fill*         0x0000000000001219        0x3 
 .text          0x000000000000121c      0x1bf objs/fork.o
                0x000000000000121c                sys_fork
 *fill*         0x00000000000013db        0x1 
 .text          0x00000000000013dc      0x43a objs/socket.o
                0x00000000000015b0                sys_socket
                0x000000000000172c                do_connect
                0x00000000000017fc                sys_connect
 *fill*         0x0000000000001816        0x2 
 .text          0x0000000000001818      0x927 objs/process.o
                0x00000000000018a8                allocate_process
                0x0000000000001944                destroy_process
                0x00000000000019c4                insert_process
                0x0000000000001a5c                remove_process
                0x0000000000001ab8                rename_process
                0x0000000000001b34                get_process_count
                0x0000000000001b88                get_process_by_id
                0x0000000000001be0                sys_get_process_count
                0x0000000000001c14                sys_get_process_info
                0x0000000000001c64                sys_getpid
                0x0000000000001c74                sys_exit
                0x0000000000001c90                sys_wait4
                0x0000000000001fe4                sys_getrusage
 *fill*         0x000000000000213f        0x1 
 .text          0x0000000000002140      0x362 objs/blockcache.o
                0x0000000000002148                block_cache_get_block
                0x0000000000002398                block_cache_put_block
                0x000000000000239c                block_cache_read_blocks
                0x00000000000023d8                init_block_cache
 *fill*         0x00000000000024a2        0x2 
 .text          0x00000000000024a4     0x1e83 objs/vfs.o
                0x00000000000029d0                create_mount_point
                0x0000000000002b98                delete_mount_point
                0x0000000000002bb4                insert_mount_point
                0x0000000000002bcc                remove_mount_point
                0x0000000000002c04                get_mount_point_by_cookie
                0x0000000000002c2c                follow_symbolic_link
                0x00000000000030cc                open
                0x00000000000030e0                sys_open
                0x0000000000003100                close
                0x0000000000003120                sys_close
                0x0000000000003144                do_pread_helper
                0x000000000000318c                pread
                0x00000000000031e8                sys_pread
                0x0000000000003258                sys_read
                0x00000000000032e4                pwrite
                0x0000000000003314                sys_pwrite
                0x000000000000335c                sys_write
                0x00000000000033f8                ioctl
                0x0000000000003414                sys_ioctl
                0x000000000000343c                getdents
                0x0000000000003458                sys_getdents
                0x0000000000003480                sys_rewinddir
                0x00000000000034f4                sys_isatty
                0x0000000000003554                sys_access
                0x0000000000003594                mkdir
                0x00000000000035a8                sys_mkdir
                0x00000000000035c8                sys_rmdir
                0x00000000000036a0                sys_unlink
                0x0000000000003724                symlink
                0x0000000000003738                sys_symlink
                0x0000000000003758                sys_fchdir
                0x00000000000037d8                sys_chdir
                0x0000000000003810                sys_stat
                0x0000000000003838                sys_lstat
                0x0000000000003860                fstat
                0x0000000000003874                sys_fstat
                0x0000000000003894                lseek
                0x00000000000038d8                sys_lseek
                0x0000000000003920                sys_fcntl
                0x0000000000003a1c                sys_readlink
                0x0000000000003a8c                mount
                0x0000000000003ab0                sys_mount
                0x0000000000003ae8                sys_unmount
                0x0000000000003c38                do_select
                0x00000000000041ac                select
                0x00000000000041d4                sys_select
                0x0000000000004200                dup
                0x0000000000004210                sys_dup
                0x000000000000422c                sys_dup2
                0x0000000000004284                sys_utime
 *fill*         0x0000000000004327        0x1 
 .text          0x0000000000004328       0x9e objs/irq.o
                0x0000000000004328                request_irq
                0x0000000000004398                do_handle_irq
 *fill*         0x00000000000043c6        0x2 
 .text          0x00000000000043c8      0x6ef objs/context.o
                0x00000000000043c8                memory_context_insert_region
                0x0000000000004424                memory_context_remove_region
                0x0000000000004448                memory_context_get_region_for
                0x000000000000452c                memory_context_find_unmapped_region
                0x00000000000045cc                memory_context_can_resize_region
                0x00000000000046a4                memory_context_delete_regions
                0x0000000000004818                memory_context_dump
                0x0000000000004864                memory_context_init
                0x00000000000048c8                memory_context_destroy
                0x00000000000048f8                memory_context_clone
 *fill*         0x0000000000004ab7        0x1 
 .text          0x0000000000004ab8      0x209 objs/ipv4.o
                0x0000000000004ab8                ipv4_send_packet
                0x0000000000004c14                ipv4_input
 *fill*         0x0000000000004cc1        0x3 
 .text          0x0000000000004cc4       0xd1 objs/bootmodule.o
                0x0000000000004d24                get_bootmodule_count
                0x0000000000004d2c                get_bootmodule_at
                0x0000000000004d44                get_bootmodule_loader
                0x0000000000004d90                put_bootmodule_loader
 *fill*         0x0000000000004d95        0x3 
 .text          0x0000000000004d98      0x15f objs/interpreter.o
 .text          0x0000000000004ef7        0x0 objs/version.o
 *fill*         0x0000000000004ef7        0x1 
 .text          0x0000000000004ef8      0xa2b objs/thread.o
                0x000000000000509c                allocate_thread
                0x00000000000051c8                destroy_thread
                0x000000000000525c                insert_thread
                0x0000000000005300                rename_thread
                0x000000000000537c                create_kernel_thread
                0x00000000000054a8                sys_create_thread
                0x00000000000055d8                thread_sleep
                0x00000000000055e8                sys_get_thread_count_for_process
                0x0000000000005624                sys_get_thread_info_for_process
                0x0000000000005680                sys_sleep_thread
                0x0000000000005694                do_wake_up_thread
                0x0000000000005708                sys_gettid
                0x0000000000005718                get_thread_count
                0x000000000000576c                get_thread_by_id
                0x00000000000057c4                thread_exit
                0x0000000000005874                kernel_thread_exit
                0x0000000000005880                sys_exit_thread
                0x000000000000588c                thread_wake_up
                0x00000000000058d8                sys_wake_up_thread
 *fill*         0x0000000000005923        0x1 
 .text          0x0000000000005924      0x3b0 objs/console.o
                0x00000000000059d4                console_get_real_screen
                0x00000000000059dc                console_set_screen
                0x0000000000005a38                console_switch_screen
                0x0000000000005a88                console_set_debug
                0x0000000000005acc                kprintf
                0x0000000000005b48                kvprintf
                0x0000000000005bbc                dprintf
                0x0000000000005c10                dprintf_unlocked
                0x0000000000005c50                kernel_console_read
 .text          0x0000000000005cd4      0x1a6 objs/init.o
                0x0000000000005cd4                init_thread
                0x0000000000005e64                execve
 *fill*         0x0000000000005e7a        0x2 
 .text          0x0000000000005e7c      0x3a8 objs/signal.o
                0x0000000000005e7c                is_signal_pending
                0x0000000000005e9c                handle_signals
                0x0000000000005f88                do_send_signal
                0x000000000000602c                send_signal
                0x0000000000006074                sys_sigaction
                0x0000000000006114                sys_sigprocmask
                0x000000000000619c                sys_kill
                0x00000000000061b4                sys_kill_thread
 .text          0x0000000000006224      0x462 objs/io_context.o
                0x0000000000006224                create_file
                0x0000000000006264                delete_file
                0x0000000000006294                io_context_insert_file
                0x0000000000006308                io_context_get_file
                0x000000000000635c                io_context_put_file
                0x00000000000063f4                io_context_insert_file_at
                0x0000000000006478                io_context_remove_file
                0x00000000000064dc                init_io_context
                0x000000000000654c                io_context_clone
                0x0000000000006624                destroy_io_context
 *fill*         0x0000000000006686        0x2 
 .text          0x0000000000006688      0x1f9 objs/packet.o
                0x0000000000006688                create_packet
                0x00000000000066c0                delete_packet
                0x00000000000066c8                create_packet_queue
                0x0000000000006730                delete_packet_queue
                0x0000000000006770                packet_queue_insert
                0x000000000000681c                packet_queue_pop_head
 *fill*         0x0000000000006881        0x3 
 .text          0x0000000000006884      0x2be objs/scheduler.o
                0x0000000000006884                add_thread_to_ready
                0x0000000000006908                add_thread_to_expired
                0x0000000000006998                reset_thread_quantum
                0x00000000000069ac                do_schedule
 *fill*         0x0000000000006b42        0x2 
 .text          0x0000000000006b44      0x6b3 objs/ipc.o
                0x0000000000006b54                sys_create_ipc_port
                0x0000000000006c54                sys_destroy_ipc_port
                0x0000000000006cf8                sys_send_ipc_message
                0x0000000000006e48                sys_recv_ipc_message
                0x0000000000006fc8                sys_peek_ipc_message
                0x00000000000070d4                sys_register_named_ipc_port
                0x00000000000071a8                sys_get_named_ipc_port
 *fill*         0x00000000000071f7        0x1 
 .text          0x00000000000071f8      0x447 objs/kmalloc.o
                0x000000000000725c                kmalloc
                0x0000000000007464                kfree
                0x0000000000007608                kmalloc_get_statistics
 *fill*         0x000000000000763f        0x1 
 .text          0x0000000000007640      0x1a3 objs/filesystem.o
                0x0000000000007684                register_filesystem
                0x0000000000007760                get_filesystem
                0x0000000000007798                probe_filesystem
 *fill*         0x00000000000077e3        0x1 
 .text          0x00000000000077e4      0x6bd objs/pages.o
                0x00000000000077e4                do_alloc_pages
                0x00000000000078a4                alloc_pages
                0x0000000000007950                alloc_pages_aligned
                0x0000000000007b18                free_pages
                0x0000000000007c4c                get_free_page_count
                0x0000000000007cac                get_total_page_count
                0x0000000000007cc0                sys_get_memory_info
                0x0000000000007cfc                reserve_memory_pages
 *fill*         0x0000000000007ea1        0x3 
 .text          0x0000000000007ea4      0x1a8 objs/devices.o
                0x0000000000007eac                register_bus_driver
                0x0000000000007f74                unregister_bus_driver
                0x0000000000007ff4                get_bus_driver
 .text          0x000000000000804c      0x22e objs/route.o
                0x00000000000080b4                create_route
                0x000000000000813c                insert_route
                0x00000000000081ac                find_route
                0x0000000000008214                put_route
 *fill*         0x000000000000827a        0x2 
 .text          0x000000000000827c      0x15e objs/syscall.o
                0x000000000000827c                handle_system_call
 *fill*         0x00000000000083da        0x2 
 .text          0x00000000000083dc      0x9f2 objs/inode.o
                0x0000000000008430                get_inode
                0x000000000000862c                put_inode
                0x00000000000086fc                get_vnode
                0x0000000000008730                put_vnode
                0x0000000000008774                mount_point_can_unmount
                0x000000000000878c                do_lookup_inode
                0x000000000000897c                lookup_parent_inode
                0x0000000000008b14                lookup_inode
                0x0000000000008c54                get_inode_cache_size
                0x0000000000008c84                init_inode_cache
                0x0000000000008d8c                destroy_inode_cache
 *fill*         0x0000000000008dce        0x2 
 .text          0x0000000000008dd0      0x891 objs/elf32.o
                0x0000000000008dd8                elf32_load_and_validate_header
                0x0000000000008e2c                elf32_load_section_headers
                0x0000000000008f04                elf32_parse_section_headers
                0x0000000000009488                elf32_get_symbol
                0x0000000000009498                elf32_get_symbol_info
                0x0000000000009548                elf32_init_image_info
                0x00000000000095c4                elf32_destroy_image_info
 *fill*         0x0000000000009661        0x3 
 .text          0x0000000000009664      0xa77 objs/region.o
                0x00000000000096e4                memory_region_allocate
                0x0000000000009768                memory_region_destroy
                0x00000000000098a8                memory_region_get
                0x00000000000098ec                memory_region_put
                0x00000000000098fc                do_create_memory_region
                0x000000000000999c                do_create_memory_region_at
                0x00000000000099f8                memory_region_create
                0x0000000000009ab4                do_memory_region_remap_pages
                0x0000000000009ae8                memory_region_remap_pages
                0x0000000000009b20                do_memory_region_alloc_pages
                0x0000000000009b58                memory_region_alloc_pages
                0x0000000000009b8c                memory_region_map_to_file
                0x0000000000009c7c                memory_region_resize
                0x0000000000009d74                sys_memory_region_create
                0x0000000000009dd4                sys_memory_region_delete
                0x0000000000009e00                sys_memory_region_remap_pages
                0x0000000000009e44                sys_memory_region_alloc_pages
                0x0000000000009e84                sys_memory_region_clone_pages
                0x0000000000009f60                memory_region_dump
 *fill*         0x000000000000a0db        0x1 
 .text          0x000000000000a0dc      0x64a objs/module.o
                0x000000000000a630                load_module
                0x000000000000a63c                get_module_symbol_info
                0x000000000000a670                sys_load_module
                0x000000000000a67c                sys_get_module_count
                0x000000000000a6b0                sys_get_module_info
                0x000000000000a708                set_module_loader
 *fill*         0x000000000000a726        0x2 
 .text          0x000000000000a728     0x10ac objs/tcp.o
                0x000000000000b0fc                tcp_create_socket
                0x000000000000b2d8                put_tcp_endpoint
                0x000000000000b378                tcp_input
 .text          0x000000000000b7d4      0x5b8 objs/waitqueue.o
                0x000000000000b7d4                waitqueue_add_node
                0x000000000000b934                waitqueue_add_node_tail
                0x000000000000ba10                waitqueue_remove_node
                0x000000000000bb14                waitqueue_wake_up
                0x000000000000bbd8                waitqueue_wake_up_head
                0x000000000000bc70                waitqueue_wake_up_all
                0x000000000000bce8                waitqueue_is_empty
                0x000000000000bd78                init_waitqueue
 .text          0x000000000000bd8c      0x16e objs/symbols.o
                0x000000000000bdd4                add_kernel_symbol
                0x000000000000be58                get_kernel_symbol_address
                0x000000000000be88                get_kernel_symbol_info
                0x000000000000becc                init_kernel_symbols
 .text          0x000000000000befa        0x0 objs/debugger.o
 *fill*         0x000000000000befa        0x2 
 .text          0x000000000000befc      0x8db objs/devfs.o
                0x000000000000c694                create_device_node
 *fill*         0x000000000000c7d7        0x1 
 .text          0x000000000000c7d8       0xef objs/smp.o
                0x000000000000c7d8                current_thread
                0x000000000000c804                current_process
                0x000000000000c814                idle_thread
                0x000000000000c824                get_active_processor_count
                0x000000000000c838                sys_get_processor_count
                0x000000000000c840                get_idle_time
                0x000000000000c854                sys_get_processor_info
 *fill*         0x000000000000c8c7        0x1 
 .text          0x000000000000c8c8      0x1b0 objs/sbrk.o
                0x000000000000c8c8                sys_sbrk
 .text          0x000000000000ca78      0x615 objs/loader.o
                0x000000000000cc20                get_app_binary_loader
                0x000000000000cc58                put_app_binary_loader
                0x000000000000cc60                get_application_symbol_info
                0x000000000000cc84                do_execve
                0x000000000000d01c                sys_execve
                0x000000000000d038                register_application_loader
                0x000000000000d064                register_interpreter_loader
 *fill*         0x000000000000d08d        0x3 
 .text          0x000000000000d090      0x415 objs/lock/context.o
                0x000000000000d22c                lock_context_get
                0x000000000000d280                lock_context_insert
                0x000000000000d2f0                lock_context_remove
                0x000000000000d354                lock_context_update
                0x000000000000d394                lock_context_make_empty
                0x000000000000d3b0                lock_context_init
                0x000000000000d3fc                lock_context_clone
                0x000000000000d46c                lock_context_destroy
                0x000000000000d494                init_locking
 *fill*         0x000000000000d4a5        0x3 
 .text          0x000000000000d4a8      0x356 objs/lock/semaphore.o
                0x000000000000d630                semaphore_lock
                0x000000000000d654                semaphore_timedlock
                0x000000000000d678                semaphore_unlock
                0x000000000000d704                semaphore_create
                0x000000000000d7a4                semaphore_destroy
 *fill*         0x000000000000d7fe        0x2 
 .text          0x000000000000d800      0x693 objs/lock/mutex.o
                0x000000000000d9d4                do_acquire_mutex
                0x000000000000dc20                mutex_lock
                0x000000000000dc40                mutex_trylock
                0x000000000000dc64                mutex_timedlock
                0x000000000000dc90                do_release_mutex
                0x000000000000dcac                mutex_unlock
                0x000000000000dcbc                mutex_clone
                0x000000000000dd18                mutex_update
                0x000000000000dd30                mutex_is_locked
                0x000000000000dda4                mutex_create
                0x000000000000ddb8                mutex_destroy
                0x000000000000ddc8                sys_mutex_lock
                0x000000000000ddec                sys_mutex_trylock
                0x000000000000de10                sys_mutex_timedlock
                0x000000000000de3c                sys_mutex_unlock
                0x000000000000de58                sys_mutex_create
                0x000000000000de78                sys_mutex_destroy
 *fill*         0x000000000000de93        0x1 
 .text          0x000000000000de94      0x1c9 objs/lock/common.o
                0x000000000000de94                lock_wait_on
                0x000000000000df48                lock_timed_wait_on
 *fill*         0x000000000000e05d        0x3 
 .text          0x000000000000e060      0x4ef objs/lock/condition.o
                0x000000000000e3c8                condition_wait
                0x000000000000e3ec                condition_timedwait
                0x000000000000e414                condition_signal
                0x000000000000e424                condition_broadcast
                0x000000000000e434                condition_clone
                0x000000000000e454                condition_update
                0x000000000000e458                condition_create
                0x000000000000e468                condition_destroy
                0x000000000000e478                sys_condition_wait
                0x000000000000e4a8                sys_condition_timedwait
                0x000000000000e4e0                sys_condition_signal
                0x000000000000e4fc                sys_condition_broadcast
                0x000000000000e518                sys_condition_create
                0x000000000000e534                sys_condition_destroy
 *fill*         0x000000000000e54f        0x1 
 .text          0x000000000000e550      0x25d objs/lib/time.o
                0x000000000000e550                gettime
                0x000000000000e704                daysdiff
                0x000000000000e768                dayofweek
                0x000000000000e78c                uptime
 *fill*         0x000000000000e7ad        0x3 
 .text          0x000000000000e7b0      0x4b8 objs/lib/hashtable.o
                0x000000000000e7b0                init_hashtable
                0x000000000000e810                destroy_hashtable
                0x000000000000e82c                hashtable_add
                0x000000000000e918                hashtable_get
                0x000000000000e96c                hashtable_remove
                0x000000000000e9f8                hashtable_iterate
                0x000000000000ea54                hashtable_filtered_iterate
                0x000000000000eacc                hashtable_get_item_count
                0x000000000000ead4                hashtable_get_filtered_item_count
                0x000000000000eb40                hash_number
                0x000000000000eb84                hash_string
                0x000000000000ebe0                hash_int
                0x000000000000ebf0                hash_int64
                0x000000000000ec00                hash_str
                0x000000000000ec1c                compare_int
                0x000000000000ec30                compare_int64
                0x000000000000ec4c                compare_str
 .text          0x000000000000ec68      0x163 objs/lib/circular.o
                0x000000000000ec68                init_circular_pointer
                0x000000000000ec88                circular_pointer_diff
                0x000000000000eca4                circular_pointer_move
                0x000000000000ecbc                circular_pointer_get
                0x000000000000eccc                init_circular_buffer
                0x000000000000ecf8                destroy_circular_buffer
                0x000000000000ed14                circular_buffer_size
                0x000000000000ed1c                circular_buffer_read
                0x000000000000ed74                circular_buffer_write
 *fill*         0x000000000000edcb        0x1 
 .text          0x000000000000edcc      0x2c9 objs/lib/array.o
                0x000000000000ee34                array_add_item
                0x000000000000ee60                array_insert_item
                0x000000000000eed0                array_remove_item
                0x000000000000ef58                array_remove_item_from
                0x000000000000efa8                array_get_size
                0x000000000000efb0                array_get_item
                0x000000000000efcc                array_index_of
                0x000000000000effc                array_make_empty
                0x000000000000f02c                array_set_realloc_size
                0x000000000000f048                array_init
                0x000000000000f06c                array_destroy
 *fill*         0x000000000000f095        0x3 
 .text          0x000000000000f098      0x3bc objs/lib/string.o
                0x000000000000f098                memmove
                0x000000000000f0e4                memcmp
                0x000000000000f12c                strlen
                0x000000000000f144                strcmp
                0x000000000000f168                strncmp
                0x000000000000f1b4                strcasecmp
                0x000000000000f1f4                strncasecmp
                0x000000000000f254                strchr
                0x000000000000f280                strrchr
                0x000000000000f2ac                strncpy
                0x000000000000f2d4                strdup
                0x000000000000f31c                strndup
                0x000000000000f378                strcat
                0x000000000000f3bc                strncat
                0x000000000000f40c                str_to_num
 .text          0x000000000000f454       0x20 objs/lib/ctype.o
                0x000000000000f454                toupper
                0x000000000000f464                tolower
 .text          0x000000000000f474      0x6a0 objs/lib/printf.o
                0x000000000000f474                do_printf
 .text          0x000000000000fb14       0xfc objs/lib/stack.o
                0x000000000000fb14                stack_push
                0x000000000000fb88                stack_pop
                0x000000000000fbb0                stack_peek
                0x000000000000fbd8                init_stack
                0x000000000000fbf4                destroy_stack
 .text          0x000000000000fc10       0x69 objs/lib/snprintf.o
                0x000000000000fc38                snprintf
 *fill*         0x000000000000fc79        0x3 
 .text          0x000000000000fc7c      0x5a7 objs/lib/udivmoddi4.o
                0x000000000000fc7c                __moddi3
                0x000000000000fe58                __umoddi3
                0x000000000000ffac                __divdi3
                0x0000000000010118                __udivdi3
 *fill*         0x0000000000010223        0x1 
 .text          0x0000000000010224       0x54 objs/arch/apic.o
                0x0000000000010224                get_processor_index
                0x0000000000010228                get_processor
                0x0000000000010230                apic_timer_irq
                0x0000000000010244                apic_spurious_irq
                0x0000000000010268                apic_tlb_flush_irq
 .text          0x0000000000010278        0x0 objs/arch/cpu.o
 .text          0x0000000000010278      0x6bd objs/arch/isr.o
                0x0000000000010278                isr0
                0x00000000000102b7                isr1
                0x00000000000102f1                isr3
                0x000000000001032b                isr6
                0x000000000001036a                isr7
                0x00000000000103a4                isr13
                0x00000000000103e1                isr14
                0x000000000001041e                isr16
                0x000000000001045d                isr19
                0x000000000001049c                isr32
                0x00000000000104d6                isr33
                0x0000000000010510                isr34
                0x000000000001054a                isr35
                0x0000000000010584                isr36
                0x00000000000105be                isr37
                0x00000000000105f8                isr38
                0x0000000000010632                isr39
                0x000000000001066c                isr40
                0x00000000000106a6                isr41
                0x00000000000106e0                isr42
                0x000000000001071a                isr43
                0x0000000000010754                isr44
                0x000000000001078e                isr45
                0x00000000000107c8                isr46
                0x0000000000010802                isr47
                0x000000000001083c                isr128
                0x000000000001087e                isr240
                0x00000000000108bb                isr241
                0x00000000000108f8                isr242
 .text          0x0000000000010935       0x47 objs/arch/switch.o
                0x0000000000010935                switch_to_thread
                0x0000000000010942                sched_preempt
 .text          0x000000000001097c        0x0 objs/arch/boot.o
 .text          0x000000000001097c        0x0 objs/arch/mp.o
 .text          0x000000000001097c      0x10c objs/arch/start.o
                0x000000000001097c                arch_reboot
                0x000000000001099c                arch_shutdown
 .text          0x0000000000010a88      0x238 objs/arch/screen.o
 .text          0x0000000000010cc0       0x7b objs/arch/gdt.o
                0x0000000000010cc0                gdt_set_descriptor_base
                0x0000000000010cf0                gdt_set_descriptor_limit
                0x0000000000010d24                gdt_set_descriptor_access
 *fill*         0x0000000000010d3b        0x1 
 .text          0x0000000000010d3c       0x79 objs/arch/fork.o
                0x0000000000010d3c                arch_do_fork
 .text          0x0000000000010db5       0x4d objs/arch/atomic.o
                0x0000000000010db5                atomic_get
                0x0000000000010dbc                atomic_set
                0x0000000000010dc7                atomic_inc
                0x0000000000010dcf                atomic_dec
                0x0000000000010dd7                atomic_dec_and_test
                0x0000000000010de7                atomic_swap
                0x0000000000010df3                atomic_test_and_clear
 *fill*         0x0000000000010e02        0x2 
 .text          0x0000000000010e04      0x765 objs/arch/pagefault.o
                0x0000000000010e8c                handle_page_fault
 *fill*         0x0000000000011569        0x3 
 .text          0x000000000001156c      0x1a6 objs/arch/bios.o
                0x0000000000011614                call_bios_interrupt
 .text          0x0000000000011712       0x77 objs/arch/string.o
                0x0000000000011712                memset
                0x000000000001172b                memsetw
                0x0000000000011745                memsetl
                0x000000000001175e                memcpy
 *fill*         0x0000000000011789        0x3 
 .text          0x000000000001178c      0x4cc objs/arch/paging.o
                0x000000000001178c                get_paging_flags_for_region
                0x00000000000117ac                paging_alloc_table_entries
                0x0000000000011884                paging_fill_table_entries
                0x000000000001194c                paging_clear_table_entries
                0x00000000000119cc                paging_free_table_entries
                0x0000000000011acc                paging_clone_table_entries
 .text          0x0000000000011c58       0xf5 objs/arch/context.o
                0x0000000000011c58                arch_memory_context_init
                0x0000000000011cbc                arch_memory_context_destroy
                0x0000000000011d28                arch_memory_context_clone
 .text          0x0000000000011d4d        0x0 objs/arch/smp_entry.o
 *fill*         0x0000000000011d4d        0x3 
 .text          0x0000000000011d50      0x691 objs/arch/elf32_module.o
                0x0000000000012398                elf32_module_get_dependencies
 *fill*         0x00000000000123e1        0x3 
 .text          0x00000000000123e4       0xb1 objs/arch/spinlock.o
                0x00000000000123e4                init_spinlock
                0x00000000000123f8                spinlock
                0x0000000000012430                spinunlock
                0x0000000000012468                spinlock_disable
                0x000000000001247c                spinunlock_enable
                0x0000000000012490                spinlock_is_locked
 *fill*         0x0000000000012495        0x3 
 .text          0x0000000000012498      0x16f objs/arch/thread.o
                0x0000000000012498                arch_allocate_thread
                0x00000000000124ec                arch_destroy_thread
                0x0000000000012500                arch_create_kernel_thread
                0x0000000000012564                arch_create_user_thread
 .text          0x0000000000012607       0x5d objs/arch/network.o
                0x0000000000012607                ip_checksum
 .text          0x0000000000012664      0x161 objs/arch/signal.o
                0x0000000000012664                sys_signal_return
                0x0000000000012690                arch_handle_userspace_signal
                0x0000000000012730                arch_handle_signals
 *fill*         0x00000000000127c5        0x3 
 .text          0x00000000000127c8       0xeb objs/arch/scheduler.o
                0x00000000000127c8                schedule
 *fill*         0x00000000000128b3        0x1 
 .text          0x00000000000128b4       0xf1 objs/arch/interrupt.o
                0x00000000000128b4                arch_disable_irq
                0x00000000000128ec                arch_enable_irq
                0x0000000000012924                arch_mask_and_ack_irq
                0x000000000001297c                irq_handler
 *fill*         0x00000000000129a5        0x3 
 .text          0x00000000000129a8      0x3b3 objs/arch/elf32_application.o
                0x00000000000129a8                elf32_application_execute
 *fill*         0x0000000000012d5b        0x1 
 .text          0x0000000000012d5c       0x41 objs/arch/syscall.o
                0x0000000000012d5c                system_call_entry
 *fill*         0x0000000000012d9d        0x3 
 .text          0x0000000000012da0      0x915 objs/arch/region.o
                0x0000000000012da0                arch_memory_region_remap_pages
                0x0000000000012f6c                arch_memory_region_alloc_pages
                0x00000000000130a8                arch_memory_region_unmap_pages
                0x0000000000013214                arch_memory_region_clone_pages
 *fill*         0x00000000000136b5        0x3 
 .text          0x00000000000136b8      0x1ca objs/arch/exception.o
                0x00000000000136b8                dump_registers
                0x000000000001373c                handle_division_by_zero
                0x0000000000013768                handle_invalid_opcode
                0x0000000000013794                handle_device_not_available
                0x0000000000013800                handle_general_protection_fault
                0x000000000001382c                handle_fpu_exception
                0x0000000000013858                handle_sse_exception
 *fill*         0x0000000000013882        0x2 
 .text          0x0000000000013884       0x10 objs/arch/fpu.o
                0x0000000000013884                load_fpu_state
                0x000000000001388c                save_fpu_state
 .text          0x0000000000013894       0x59 objs/arch/i386.o
                0x0000000000013894                get_eflags
                0x0000000000013897                set_eflags
                0x000000000001389d                disable_interrupts
                0x00000000000138a6                enable_interrupts
                0x00000000000138a8                is_interrupts_disabled
                0x00000000000138b2                get_cr2
                0x00000000000138b6                set_cr2
                0x00000000000138be                get_cr3
                0x00000000000138c2                set_cr3
                0x00000000000138ca                get_ebp
                0x00000000000138cd                clear_task_switched
                0x00000000000138d0                set_task_switched
                0x00000000000138da                flush_tlb
                0x00000000000138e1                invlpg
                0x00000000000138e7                halt_loop
 *fill*         0x00000000000138ed        0x3 
 .text          0x00000000000138f0      0x18a objs/arch/hwtime.o
                0x00000000000138f0                gethwclock
                0x0000000000013a74                sethwclock
 *fill*         0x0000000000013a7a        0x2 
 .text          0x0000000000013a7c       0xe3 objs/arch/debugger.o
                0x0000000000013a7c                debug_print_stack_trace
                0x0000000000013b48                handle_debug_exception
 *fill*         0x0000000000013b5f        0x1 
 .text          0x0000000000013b60      0x150 objs/arch/pit.o
                0x0000000000013be8                pit_read_timer
                0x0000000000013bfc                pit_wait_wrap
                0x0000000000013c38                get_system_time
                0x0000000000013c70                set_system_time
                0x0000000000013ca4                get_boot_time
 .text          0x0000000000013cb0        0x0 objs/arch/smp.o
 .text          0x0000000000013cb0      0x570 objs/x86emu/debug.o
                0x0000000000013cb0                x86emu_dump_regs
                0x0000000000013f68                x86emu_dump_xregs
 .text          0x0000000000014220     0x3731 objs/x86emu/prim_ops.o
                0x0000000000014220                aaa_word
                0x000000000001429c                aas_word
                0x0000000000014318                aad_word
                0x000000000001438c                aam_word
                0x00000000000143fc                adc_byte
                0x00000000000144d4                adc_word
                0x00000000000145b0                adc_long
                0x00000000000146a8                add_byte
                0x0000000000014770                add_word
                0x0000000000014838                add_long
                0x0000000000014900                and_byte
                0x0000000000014964                and_word
                0x00000000000149c8                and_long
                0x0000000000014a28                cmp_byte
                0x0000000000014ae4                cmp_word
                0x0000000000014ba4                cmp_long
                0x0000000000014c50                daa_byte
                0x0000000000014cd8                das_byte
                0x0000000000014d60                dec_byte
                0x0000000000014e00                dec_word
                0x0000000000014ea0                dec_long
                0x0000000000014f30                inc_byte
                0x0000000000014fd4                inc_word
                0x0000000000015074                inc_long
                0x0000000000015108                or_byte
                0x000000000001516c                or_word
                0x00000000000151d0                or_long
                0x0000000000015230                neg_byte
                0x00000000000152d0                neg_word
                0x000000000001536c                neg_long
                0x0000000000015408                not_byte
                0x0000000000015410                not_word
                0x0000000000015418                not_long
                0x0000000000015420                rcl_byte
                0x00000000000154e0                rcl_word
                0x000000000001558c                rcl_long
                0x0000000000015634                rcr_byte
                0x0000000000015768                rcr_word
                0x0000000000015880                rcr_long
                0x0000000000015974                rol_byte
                0x0000000000015a20                rol_word
                0x0000000000015acc                rol_long
                0x0000000000015b68                ror_byte
                0x0000000000015c00                ror_word
                0x0000000000015c98                ror_long
                0x0000000000015d28                shl_byte
                0x0000000000015e38                shl_word
                0x0000000000015f44                shl_long
                0x0000000000016038                shr_byte
                0x0000000000016120                shr_word
                0x00000000000161f4                shr_long
                0x00000000000162b8                sar_byte
                0x0000000000016374                sar_word
                0x0000000000016434                sar_long
                0x00000000000164dc                shld_word
                0x00000000000165fc                shld_long
                0x00000000000166fc                shrd_word
                0x00000000000167f8                shrd_long
                0x00000000000168d0                sbb_byte
                0x0000000000016990                sbb_word
                0x0000000000016a54                sbb_long
                0x0000000000016b08                sub_byte
                0x0000000000016bbc                sub_word
                0x0000000000016c70                sub_long
                0x0000000000016d10                test_byte
                0x0000000000016d74                test_word
                0x0000000000016dcc                test_long
                0x0000000000016e24                xor_byte
                0x0000000000016e8c                xor_word
                0x0000000000016ef4                xor_long
                0x0000000000016f58                imul_byte
                0x0000000000016f98                imul_word
                0x0000000000016fe4                imul_long_direct
                0x0000000000016ffc                imul_long
                0x0000000000017038                mul_byte
                0x0000000000017068                mul_word
                0x00000000000170a4                mul_long
                0x00000000000170cc                idiv_byte
                0x000000000001710c                idiv_word
                0x00000000000171c4                idiv_long
                0x0000000000017278                div_byte
                0x00000000000172b4                div_word
                0x000000000001736c                div_long
                0x0000000000017420                ins
                0x000000000001765c                outs
                0x0000000000017890                mem_access_word
                0x0000000000017898                push_word
                0x00000000000178cc                push_long
                0x00000000000178fc                pop_word
                0x0000000000017928                pop_long
 *fill*         0x0000000000017951        0x3 
 .text          0x0000000000017954     0x9427 objs/x86emu/ops.o
 *fill*         0x0000000000020d7b        0x1 
 .text          0x0000000000020d7c      0x22e objs/x86emu/sys.o
                0x0000000000020d94                rdb
                0x0000000000020db8                rdw
                0x0000000000020de0                rdl
                0x0000000000020e08                wrb
                0x0000000000020e30                wrw
                0x0000000000020e5c                wrl
                0x0000000000020e88                X86EMU_setupMemFuncs
                0x0000000000020ec4                X86EMU_setupPioFuncs
                0x0000000000020f00                X86EMU_setupIntrFuncs
                0x0000000000020f38                X86EMU_prepareForInt
 *fill*         0x0000000000020faa        0x2 
 .text          0x0000000000020fac      0xdb8 objs/x86emu/decode.o
                0x0000000000021000                x86emu_intr_raise
                0x0000000000021018                X86EMU_exec
                0x000000000002114c                X86EMU_halt_sys
                0x000000000002115c                fetch_decode_modrm
                0x00000000000211b0                fetch_byte_imm
                0x00000000000211e0                fetch_word_imm
                0x000000000002120c                fetch_long_imm
                0x0000000000021238                fetch_data_byte
                0x000000000002125c                fetch_data_word
                0x0000000000021280                fetch_data_long
                0x00000000000212a4                fetch_data_byte_abs
                0x00000000000212bc                fetch_data_word_abs
                0x00000000000212d4                fetch_data_long_abs
                0x00000000000212ec                store_data_byte
                0x000000000002131c                store_data_word
                0x000000000002134c                store_data_long
                0x0000000000021378                store_data_byte_abs
                0x000000000002139c                store_data_word_abs
                0x00000000000213c0                store_data_long_abs
                0x00000000000213e0                decode_rm_byte_register
                0x0000000000021440                decode_rm_word_register
                0x00000000000214a0                decode_rm_long_register
                0x0000000000021500                decode_rm_seg_register
                0x0000000000021550                decode_sib_address
                0x00000000000216ec                decode_rm00_address
                0x00000000000218b8                decode_rm01_address
                0x0000000000021b08                decode_rm10_address
 .text          0x0000000000021d64      0x44d objs/x86emu/fpu.o
                0x0000000000021d64                x86emuOp_esc_coprocess_d8
                0x0000000000021d70                x86emuOp_esc_coprocess_d9
                0x0000000000021e0c                x86emuOp_esc_coprocess_da
                0x0000000000021ea8                x86emuOp_esc_coprocess_db
                0x0000000000021f44                x86emuOp_esc_coprocess_dc
                0x0000000000021fe0                x86emuOp_esc_coprocess_dd
                0x000000000002207c                x86emuOp_esc_coprocess_de
                0x0000000000022118                x86emuOp_esc_coprocess_df
 *fill*         0x00000000000221b1        0x3 
 .text          0x00000000000221b4     0x2cd1 objs/x86emu/ops2.o
 *(.text.*)
 .text.unlikely
                0x0000000000024e85        0x0 objs/time.o
 .text.unlikely
                0x0000000000024e85        0x0 objs/icmp.o
 .text.unlikely
                0x0000000000024e85        0x0 objs/elf.o
 .text.unlikely
                0x0000000000024e85        0x0 objs/kernel.o
 .text.unlikely
                0x0000000000024e85        0x0 objs/rootfs.o
 .text.unlikely
                0x0000000000024e85        0x0 objs/interface.o
 .text.unlikely
                0x0000000000024e85        0x0 objs/arp.o
 .text.unlikely
                0x0000000000024e85        0x0 objs/fork.o
 .text.unlikely
                0x0000000000024e85        0x0 objs/socket.o
 .text.unlikely
                0x0000000000024e85        0x0 objs/process.o
 .text.unlikely
                0x0000000000024e85        0x0 objs/blockcache.o
 .text.unlikely
                0x0000000000024e85        0x0 objs/vfs.o
 .text.unlikely
                0x0000000000024e85        0x0 objs/irq.o
 .text.unlikely
                0x0000000000024e85        0x0 objs/context.o
 .text.unlikely
                0x0000000000024e85        0x0 objs/ipv4.o
 .text.unlikely
                0x0000000000024e85        0x0 objs/bootmodule.o
 .text.unlikely
                0x0000000000024e85        0x0 objs/interpreter.o
 .text.unlikely
                0x0000000000024e85        0x0 objs/thread.o
 .text.unlikely
                0x0000000000024e85        0x0 objs/console.o
 .text.unlikely
                0x0000000000024e85        0x0 objs/init.o
 .text.unlikely
                0x0000000000024e85        0x0 objs/signal.o
 .text.unlikely
                0x0000000000024e85        0x0 objs/io_context.o
 .text.unlikely
                0x0000000000024e85        0x0 objs/packet.o
 .text.unlikely
                0x0000000000024e85        0x0 objs/scheduler.o
 .text.unlikely
                0x0000000000024e85        0x0 objs/ipc.o
 .text.unlikely
                0x0000000000024e85        0x0 objs/kmalloc.o
 .text.unlikely
                0x0000000000024e85        0x0 objs/filesystem.o
 .text.unlikely
                0x0000000000024e85        0x0 objs/pages.o
 .text.unlikely
                0x0000000000024e85        0x0 objs/devices.o
 .text.unlikely
                0x0000000000024e85        0x0 objs/route.o
 .text.unlikely
                0x0000000000024e85        0x0 objs/syscall.o
 .text.unlikely
                0x0000000000024e85        0x0 objs/inode.o
 .text.unlikely
                0x0000000000024e85        0x0 objs/elf32.o
 .text.unlikely
                0x0000000000024e85        0x0 objs/region.o
 .text.unlikely
                0x0000000000024e85        0x0 objs/module.o
 .text.unlikely
                0x0000000000024e85        0x0 objs/tcp.o
 .text.unlikely
                0x0000000000024e85        0x0 objs/waitqueue.o
 .text.unlikely
                0x0000000000024e85        0x0 objs/symbols.o
 .text.unlikely
                0x0000000000024e85        0x0 objs/devfs.o
 .text.unlikely
                0x0000000000024e85        0x0 objs/smp.o
 .text.unlikely
                0x0000000000024e85        0x0 objs/sbrk.o
 .text.unlikely
                0x0000000000024e85        0x0 objs/loader.o
 .text.unlikely
                0x0000000000024e85        0x0 objs/lock/context.o
 .text.unlikely
                0x0000000000024e85        0x0 objs/lock/semaphore.o
 .text.unlikely
                0x0000000000024e85        0x0 objs/lock/mutex.o
 .text.unlikely
                0x0000000000024e85        0x0 objs/lock/common.o
 .text.unlikely
                0x0000000000024e85        0x0 objs/lock/condition.o
 .text.unlikely
                0x0000000000024e85        0x0 objs/lib/time.o
 .text.unlikely
                0x0000000000024e85        0x0 objs/lib/hashtable.o
 .text.unlikely
                0x0000000000024e85        0x0 objs/lib/circular.o
 .text.unlikely
                0x0000000000024e85        0x0 objs/lib/array.o
 .text.unlikely
                0x0000000000024e85        0x0 objs/lib/string.o
 .text.unlikely
                0x0000000000024e85        0x0 objs/lib/ctype.o
 .text.unlikely
                0x0000000000024e85        0x0 objs/lib/printf.o
 .text.unlikely
                0x0000000000024e85        0x0 objs/lib/stack.o
 .text.unlikely
                0x0000000000024e85        0x0 objs/lib/snprintf.o
 .text.unlikely
                0x0000000000024e85        0x0 objs/lib/udivmoddi4.o
 .text.unlikely
                0x0000000000024e85        0x0 objs/arch/apic.o
 .text.unlikely
                0x0000000000024e85        0x0 objs/arch/start.o
 .text.unlikely
                0x0000000000024e85        0x0 objs/arch/screen.o
 .text.unlikely
                0x0000000000024e85        0x0 objs/arch/gdt.o
 .text.unlikely
                0x0000000000024e85        0x0 objs/arch/fork.o
 .text.unlikely
                0x0000000000024e85        0x0 objs/arch/pagefault.o
 .text.unlikely
                0x0000000000024e85        0x0 objs/arch/bios.o
 .text.unlikely
                0x0000000000024e85        0x0 objs/arch/paging.o
 .text.unlikely
                0x0000000000024e85        0x0 objs/arch/context.o
 .text.unlikely
                0x0000000000024e85        0x0 objs/arch/elf32_module.o
 .text.unlikely
                0x0000000000024e85        0x0 objs/arch/spinlock.o
 .text.unlikely
                0x0000000000024e85        0x0 objs/arch/thread.o
 .text.unlikely
                0x0000000000024e85        0x0 objs/arch/signal.o
 .text.unlikely
                0x0000000000024e85        0x0 objs/arch/scheduler.o
 .text.unlikely
                0x0000000000024e85        0x0 objs/arch/interrupt.o
 .text.unlikely
                0x0000000000024e85        0x0 objs/arch/elf32_application.o
 .text.unlikely
                0x0000000000024e85        0x0 objs/arch/syscall.o
 .text.unlikely
                0x0000000000024e85        0x0 objs/arch/region.o
 .text.unlikely
                0x0000000000024e85        0x0 objs/arch/exception.o
 .text.unlikely
                0x0000000000024e85        0x0 objs/arch/fpu.o
 .text.unlikely
                0x0000000000024e85        0x0 objs/arch/hwtime.o
 .text.unlikely
                0x0000000000024e85        0x0 objs/arch/debugger.o
 .text.unlikely
                0x0000000000024e85        0x0 objs/arch/pit.o
 .text.unlikely
                0x0000000000024e85        0x0 objs/x86emu/debug.o
 .text.unlikely
                0x0000000000024e85        0x0 objs/x86emu/prim_ops.o
 .text.unlikely
                0x0000000000024e85        0x0 objs/x86emu/ops.o
 .text.unlikely
                0x0000000000024e85        0x0 objs/x86emu/sys.o
 .text.unlikely
                0x0000000000024e85        0x0 objs/x86emu/decode.o
 .text.unlikely
                0x0000000000024e85        0x0 objs/x86emu/fpu.o
 .text.unlikely
                0x0000000000024e85        0x0 objs/x86emu/ops2.o
                0x0000000000024e85                __smp_trampoline_start = .
 *(.smp_trampoline)
                0x0000000000024e85                __smp_trampoline_end = .

.iplt           0x0000000000024e90        0x0
 .iplt          0x0000000000024e90        0x0 objs/time.o

.rodata         0x0000000000024ea0     0x3014
 *(.rodata)
 .rodata        0x0000000000024ea0       0x14 objs/vfs.o
 .rodata        0x0000000000024eb4       0x1c objs/scheduler.o
 *fill*         0x0000000000024ed0       0x10 
 .rodata        0x0000000000024ee0      0x42c objs/syscall.o
 .rodata        0x000000000002530c       0x10 objs/lock/context.o
 *fill*         0x000000000002531c        0x4 
 .rodata        0x0000000000025320       0xae objs/lib/time.o
                0x0000000000025320                sumofdays
                0x0000000000025398                monthdays2
                0x00000000000253b4                monthdays
 *fill*         0x00000000000253ce        0x2 
 .rodata        0x00000000000253d0       0x98 objs/lib/printf.o
 .rodata        0x0000000000025468       0x16 objs/arch/elf32_application.o
 *fill*         0x000000000002547e        0x2 
 .rodata        0x0000000000025480       0x1f objs/arch/region.o
 *fill*         0x000000000002549f        0x1 
 .rodata        0x00000000000254a0       0x20 objs/x86emu/prim_ops.o
 .rodata        0x00000000000254c0      0x260 objs/x86emu/ops.o
 .rodata        0x0000000000025720      0x280 objs/x86emu/decode.o
 .rodata        0x00000000000259a0       0x80 objs/x86emu/ops2.o
 *(.rodata.*)
 .rodata.str1.4
                0x0000000000025a20       0x21 objs/icmp.o
 .rodata.str1.1
                0x0000000000025a41       0x1c objs/icmp.o
 .rodata.str1.1
                0x0000000000025a5d       0x2e objs/kernel.o
                                         0x37 (size before relaxing)
 .rodata.str1.1
                0x0000000000025a8b       0x48 objs/rootfs.o
                                         0x59 (size before relaxing)
 *fill*         0x0000000000025ad3        0x1 
 .rodata.str1.4
                0x0000000000025ad4       0x21 objs/rootfs.o
 .rodata.str1.1
                0x0000000000025af5       0x67 objs/interface.o
                                         0x6c (size before relaxing)
 .rodata.str1.4
                0x0000000000025b5c       0x1f objs/interface.o
 *fill*         0x0000000000025b7b        0x1 
 .rodata.str1.4
                0x0000000000025b7c       0x52 objs/arp.o
 .rodata.str1.1
                0x0000000000025bce       0x1b objs/arp.o
 .rodata.str1.1
                0x0000000000025be9       0x13 objs/socket.o
 .rodata.str1.1
                0x0000000000025bfc       0x76 objs/process.o
 *fill*         0x0000000000025c72        0x2 
 .rodata.str1.4
                0x0000000000025c74       0xd6 objs/process.o
                                         0xfa (size before relaxing)
 .rodata.str1.1
                0x0000000000025d4a       0x37 objs/blockcache.o
 .rodata.str1.4
                0x0000000000025d81       0x21 objs/blockcache.o
 .rodata.str1.1
                0x0000000000025d81       0x41 objs/vfs.o
                                         0x45 (size before relaxing)
 *fill*         0x0000000000025dc2        0x2 
 .rodata.str1.4
                0x0000000000025dc4       0x93 objs/vfs.o
                                         0xb7 (size before relaxing)
 *fill*         0x0000000000025e57        0x1 
 .rodata.str1.4
                0x0000000000025e58       0x77 objs/context.o
                                         0x9b (size before relaxing)
 .rodata.str1.1
                0x0000000000025ecf       0x53 objs/context.o
 *fill*         0x0000000000025f22        0x2 
 .rodata.str1.4
                0x0000000000025f24       0x54 objs/ipv4.o
                                         0x75 (size before relaxing)
 .rodata.str1.1
                0x0000000000025f78       0x3a objs/ipv4.o
 .rodata.str1.1
                0x0000000000025fb2        0x8 objs/bootmodule.o
 .rodata.str1.1
                0x0000000000025fba       0x10 objs/interpreter.o
 .rodata.str1.1
                0x0000000000025fca       0x15 objs/version.o
 .rodata.str1.1
                0x0000000000025fdf       0x2d objs/thread.o
                                         0x43 (size before relaxing)
 .rodata.str1.4
                0x000000000002600c       0x6a objs/thread.o
                                         0x8e (size before relaxing)
 .rodata.str1.1
                0x0000000000026076        0x8 objs/console.o
 .rodata.str1.1
                0x000000000002607e       0xb9 objs/init.o
                                         0xc3 (size before relaxing)
 *fill*         0x0000000000026137        0x1 
 .rodata.str1.4
                0x0000000000026138       0xf1 objs/init.o
 .rodata.str1.1
                0x0000000000026229       0x14 objs/signal.o
                                         0x21 (size before relaxing)
 *fill*         0x000000000002623d        0x3 
 .rodata.str1.4
                0x0000000000026240       0x25 objs/signal.o
                                         0x49 (size before relaxing)
 .rodata.str1.1
                0x0000000000026265       0x27 objs/io_context.o
                                         0x3b (size before relaxing)
 .rodata.str1.4
                0x000000000002628c       0x21 objs/io_context.o
 .rodata.str1.1
                0x000000000002628c       0x66 objs/packet.o
 .rodata.str1.4
                0x00000000000262f2       0x21 objs/packet.o
 .rodata.str1.1
                0x00000000000262f2       0x20 objs/scheduler.o
                                         0x36 (size before relaxing)
 *fill*         0x0000000000026312        0x2 
 .rodata.str1.4
                0x0000000000026314       0x35 objs/scheduler.o
                                         0x59 (size before relaxing)
 .rodata.str1.1
                0x0000000000026349       0x4f objs/ipc.o
                                         0x64 (size before relaxing)
 .rodata.str1.4
                0x0000000000026398       0x45 objs/ipc.o
                                         0x69 (size before relaxing)
 *fill*         0x00000000000263dd        0x3 
 .rodata.str1.4
                0x00000000000263e0      0x10d objs/kmalloc.o
                                        0x131 (size before relaxing)
 .rodata.str1.1
                0x00000000000264ed       0x19 objs/kmalloc.o
 .rodata.str1.1
                0x0000000000026506        0xf objs/filesystem.o
 .rodata.str1.1
                0x0000000000026515       0x9d objs/pages.o
 *fill*         0x00000000000265b2        0x2 
 .rodata.str1.4
                0x00000000000265b4       0xf7 objs/pages.o
                                        0x11b (size before relaxing)
 .rodata.str1.1
                0x00000000000266ab       0x10 objs/devices.o
 *fill*         0x00000000000266bb        0x1 
 .rodata.str1.4
                0x00000000000266bc       0x2d objs/route.o
 .rodata.str1.1
                0x00000000000266e9        0xc objs/route.o
 .rodata.str1.1
                0x00000000000266f5      0x43c objs/syscall.o
                                        0x45f (size before relaxing)
 .rodata.str1.4
                0x0000000000026b31       0x21 objs/syscall.o
 .rodata.str1.1
                0x0000000000026b31       0x5a objs/inode.o
                                         0x6b (size before relaxing)
 *fill*         0x0000000000026b8b        0x1 
 .rodata.str1.4
                0x0000000000026b8c       0x24 objs/inode.o
                                         0x48 (size before relaxing)
 .rodata.str1.1
                0x0000000000026bb0       0x18 objs/elf32.o
 .rodata.str1.4
                0x0000000000026bc8       0x64 objs/elf32.o
 .rodata.str1.1
                0x0000000000026c2c       0x43 objs/region.o
                                         0x75 (size before relaxing)
 *fill*         0x0000000000026c6f        0x1 
 .rodata.str1.4
                0x0000000000026c70       0x48 objs/region.o
                                         0x6c (size before relaxing)
 .rodata.str1.1
                0x0000000000026cb8       0x58 objs/module.o
                                         0x5d (size before relaxing)
 .rodata.str1.4
                0x0000000000026d10       0xc7 objs/module.o
 *fill*         0x0000000000026dd7        0x1 
 .rodata.str1.4
                0x0000000000026dd8       0x6d objs/tcp.o
                                         0x91 (size before relaxing)
 .rodata.str1.1
                0x0000000000026e45       0x90 objs/tcp.o
 .rodata.str1.1
                0x0000000000026ed5       0xa2 objs/waitqueue.o
 *fill*         0x0000000000026f77        0x1 
 .rodata.str1.4
                0x0000000000026f78       0x31 objs/waitqueue.o
                                         0x55 (size before relaxing)
 .rodata.str1.1
                0x0000000000026fa9        0xc objs/devfs.o
                                         0x16 (size before relaxing)
 .rodata.str1.1
                0x0000000000026fb5       0x23 objs/smp.o
 .rodata.str1.4
                0x0000000000026fd8       0x21 objs/smp.o
 .rodata.str1.1
                0x0000000000026fd8       0x23 objs/sbrk.o
                                          0x5 (size before relaxing)
 .rodata.str1.1
                0x0000000000026fd8       0x1c objs/loader.o
                                         0x22 (size before relaxing)
 .rodata.str1.4
                0x0000000000026ff4       0x48 objs/loader.o
 .rodata.str1.4
                0x000000000002703c       0xb5 objs/lock/context.o
                                         0xd9 (size before relaxing)
 .rodata.str1.1
                0x00000000000270f1       0x25 objs/lock/context.o
 *fill*         0x0000000000027116        0x2 
 .rodata.str1.4
                0x0000000000027118       0x55 objs/lock/semaphore.o
 *fill*         0x000000000002716d        0x3 
 .rodata.str1.4
                0x0000000000027170       0xbd objs/lock/mutex.o
 *fill*         0x000000000002722d        0x3 
 .rodata.str1.4
                0x0000000000027230       0x55 objs/lock/condition.o
 .rodata.str1.1
                0x0000000000027285        0x7 objs/lib/printf.o
 .rodata.str1.1
                0x000000000002728c       0x59 objs/arch/apic.o
 *fill*         0x00000000000272e5        0x3 
 .rodata.str1.4
                0x00000000000272e8       0x3a objs/arch/apic.o
 .rodata.str1.1
                0x0000000000027322       0x73 objs/arch/cpu.o
                                         0x76 (size before relaxing)
 *fill*         0x0000000000027395        0x3 
 .rodata.str1.4
                0x0000000000027398       0x20 objs/arch/mp.o
 .rodata.str1.4
                0x00000000000273b8       0xe4 objs/arch/start.o
                                        0x108 (size before relaxing)
 .rodata.str1.1
                0x000000000002749c       0x59 objs/arch/start.o
 .rodata.str1.1
                0x00000000000274f5        0xd objs/arch/screen.o
 *fill*         0x0000000000027502        0x2 
 .rodata.str1.4
                0x0000000000027504       0x93 objs/arch/pagefault.o
                                         0xb7 (size before relaxing)
 .rodata.str1.1
                0x0000000000027597       0xad objs/arch/pagefault.o
                                         0xc5 (size before relaxing)
 .rodata.str1.1
                0x0000000000027644        0xa objs/arch/bios.o
 .rodata.str1.1
                0x000000000002764e       0x7c objs/arch/paging.o
                                         0x90 (size before relaxing)
 *fill*         0x00000000000276ca        0x2 
 .rodata.str1.4
                0x00000000000276cc       0x3d objs/arch/paging.o
                                         0x61 (size before relaxing)
 .rodata.str1.1
                0x0000000000027709       0x28 objs/arch/elf32_module.o
 *fill*         0x0000000000027731        0x3 
 .rodata.str1.4
                0x0000000000027734       0xf7 objs/arch/elf32_module.o
                                        0x11b (size before relaxing)
 .rodata.str1.1
                0x000000000002782b       0x19 objs/arch/spinlock.o
                                         0x32 (size before relaxing)
 .rodata.str1.4
                0x0000000000027844       0x21 objs/arch/spinlock.o
 .rodata.str1.1
                0x0000000000027844       0x17 objs/arch/signal.o
 *fill*         0x000000000002785b        0x1 
 .rodata.str1.4
                0x000000000002785c       0x70 objs/arch/signal.o
                                         0x94 (size before relaxing)
 .rodata.str1.1
                0x00000000000278cc       0x17 objs/arch/elf32_application.o
                                          0xc (size before relaxing)
 .rodata.str1.4
                0x00000000000278cc       0x2f objs/arch/elf32_application.o
 *fill*         0x00000000000278fb        0x1 
 .rodata.str1.4
                0x00000000000278fc       0xd1 objs/arch/region.o
                                         0xf5 (size before relaxing)
 .rodata.str1.1
                0x00000000000279cd       0x37 objs/arch/region.o
                                         0x5d (size before relaxing)
 .rodata.str1.1
                0x0000000000027a04       0xbe objs/arch/exception.o
 .rodata.str1.1
                0x0000000000027ac2        0x9 objs/arch/hwtime.o
 .rodata.str1.1
                0x0000000000027acb       0x22 objs/arch/debugger.o
                                         0x24 (size before relaxing)
 *fill*         0x0000000000027aed        0x3 
 .rodata.str1.4
                0x0000000000027af0       0x20 objs/arch/debugger.o
 .rodata.str1.1
                0x0000000000027b10        0x4 objs/arch/pit.o
 .rodata.str1.1
                0x0000000000027b14      0x294 objs/x86emu/debug.o
 .rodata.str1.4
                0x0000000000027da8       0x46 objs/x86emu/ops.o
 *fill*         0x0000000000027dee        0x2 
 .rodata.str1.4
                0x0000000000027df0       0xc4 objs/x86emu/ops2.o
                                         0xc2 (size before relaxing)
                0x0000000000027eb4                __ro_end = .
                0x0000000000027eb4                __data_start = .

.eh_frame       0x0000000000027eb4    0x14298
 .eh_frame      0x0000000000027eb4       0xf0 objs/time.o
 .eh_frame      0x0000000000027fa4       0xac objs/icmp.o
                                         0xc4 (size before relaxing)
 .eh_frame      0x0000000000028050       0x28 objs/elf.o
                                         0x40 (size before relaxing)
 .eh_frame      0x0000000000028078      0x264 objs/kernel.o
                                        0x27c (size before relaxing)
 .eh_frame      0x00000000000282dc      0x5c4 objs/rootfs.o
                                        0x5dc (size before relaxing)
 .eh_frame      0x00000000000288a0      0x300 objs/interface.o
                                        0x318 (size before relaxing)
 .eh_frame      0x0000000000028ba0      0x25c objs/arp.o
                                        0x274 (size before relaxing)
 .eh_frame      0x0000000000028dfc       0xe0 objs/fork.o
                                         0xf8 (size before relaxing)
 .eh_frame      0x0000000000028edc      0x35c objs/socket.o
                                        0x374 (size before relaxing)
 .eh_frame      0x0000000000029238      0x5e8 objs/process.o
                                        0x600 (size before relaxing)
 .eh_frame      0x0000000000029820      0x1d8 objs/blockcache.o
                                        0x1f0 (size before relaxing)
 .eh_frame      0x00000000000299f8     0x134c objs/vfs.o
                                       0x1364 (size before relaxing)
 .eh_frame      0x000000000002ad44       0x94 objs/irq.o
                                         0xac (size before relaxing)
 .eh_frame      0x000000000002add8      0x490 objs/context.o
                                        0x4a8 (size before relaxing)
 .eh_frame      0x000000000002b268      0x124 objs/ipv4.o
                                        0x13c (size before relaxing)
 .eh_frame      0x000000000002b38c      0x15c objs/bootmodule.o
                                        0x174 (size before relaxing)
 .eh_frame      0x000000000002b4e8      0x124 objs/interpreter.o
                                        0x13c (size before relaxing)
 .eh_frame      0x000000000002b60c      0x668 objs/thread.o
                                        0x680 (size before relaxing)
 .eh_frame      0x000000000002bc74      0x244 objs/console.o
                                        0x25c (size before relaxing)
 .eh_frame      0x000000000002beb8      0x1f8 objs/init.o
                                        0x210 (size before relaxing)
 .eh_frame      0x000000000002c0b0      0x258 objs/signal.o
                                        0x270 (size before relaxing)
 .eh_frame      0x000000000002c308      0x368 objs/io_context.o
                                        0x380 (size before relaxing)
 .eh_frame      0x000000000002c670      0x190 objs/packet.o
                                        0x1a8 (size before relaxing)
 .eh_frame      0x000000000002c800      0x12c objs/scheduler.o
                                        0x144 (size before relaxing)
 .eh_frame      0x000000000002c92c      0x4ac objs/ipc.o
                                        0x4c4 (size before relaxing)
 .eh_frame      0x000000000002cdd8      0x1ec objs/kmalloc.o
                                        0x204 (size before relaxing)
 .eh_frame      0x000000000002cfc4      0x17c objs/filesystem.o
                                        0x194 (size before relaxing)
 .eh_frame      0x000000000002d140      0x3a0 objs/pages.o
                                        0x3b8 (size before relaxing)
 .eh_frame      0x000000000002d4e0      0x194 objs/devices.o
                                        0x1ac (size before relaxing)
 .eh_frame      0x000000000002d674      0x208 objs/route.o
                                        0x220 (size before relaxing)
 .eh_frame      0x000000000002d87c       0x94 objs/syscall.o
                                         0xac (size before relaxing)
 .eh_frame      0x000000000002d910      0x5f8 objs/inode.o
                                        0x610 (size before relaxing)
 .eh_frame      0x000000000002df08      0x4a4 objs/elf32.o
                                        0x4bc (size before relaxing)
 .eh_frame      0x000000000002e3ac      0x81c objs/region.o
                                        0x834 (size before relaxing)
 .eh_frame      0x000000000002ebc8      0x46c objs/module.o
                                        0x484 (size before relaxing)
 .eh_frame      0x000000000002f034      0x980 objs/tcp.o
                                        0x998 (size before relaxing)
 .eh_frame      0x000000000002f9b4      0x324 objs/waitqueue.o
                                        0x33c (size before relaxing)
 .eh_frame      0x000000000002fcd8      0x148 objs/symbols.o
                                        0x160 (size before relaxing)
 .eh_frame      0x000000000002fe20      0x5fc objs/devfs.o
                                        0x614 (size before relaxing)
 .eh_frame      0x000000000003041c      0x164 objs/smp.o
                                        0x17c (size before relaxing)
 .eh_frame      0x0000000000030580       0xb0 objs/sbrk.o
                                         0xc8 (size before relaxing)
 .eh_frame      0x0000000000030630      0x34c objs/loader.o
                                        0x364 (size before relaxing)
 .eh_frame      0x000000000003097c      0x394 objs/lock/context.o
                                        0x3ac (size before relaxing)
 .eh_frame      0x0000000000030d10      0x234 objs/lock/semaphore.o
                                        0x24c (size before relaxing)
 .eh_frame      0x0000000000030f44      0x520 objs/lock/mutex.o
                                        0x538 (size before relaxing)
 .eh_frame      0x0000000000031464      0x110 objs/lock/common.o
                                        0x128 (size before relaxing)
 .eh_frame      0x0000000000031574      0x440 objs/lock/condition.o
                                        0x458 (size before relaxing)
 .eh_frame      0x00000000000319b4      0x108 objs/lib/time.o
                                        0x120 (size before relaxing)
 .eh_frame      0x0000000000031abc      0x3b8 objs/lib/hashtable.o
                                        0x3d0 (size before relaxing)
 .eh_frame      0x0000000000031e74      0x178 objs/lib/circular.o
                                        0x190 (size before relaxing)
 .eh_frame      0x0000000000031fec      0x21c objs/lib/array.o
                                        0x234 (size before relaxing)
 .eh_frame      0x0000000000032208      0x2f4 objs/lib/string.o
                                        0x30c (size before relaxing)
 .eh_frame      0x00000000000324fc       0x28 objs/lib/ctype.o
                                         0x40 (size before relaxing)
 .eh_frame      0x0000000000032524       0xd8 objs/lib/printf.o
                                         0xf0 (size before relaxing)
 .eh_frame      0x00000000000325fc       0xac objs/lib/stack.o
                                         0xc4 (size before relaxing)
 .eh_frame      0x00000000000326a8       0x50 objs/lib/snprintf.o
                                         0x68 (size before relaxing)
 .eh_frame      0x00000000000326f8      0x188 objs/lib/udivmoddi4.o
                                        0x1a0 (size before relaxing)
 .eh_frame      0x0000000000032880      0x130 objs/arch/apic.o
                                        0x148 (size before relaxing)
 .eh_frame      0x00000000000329b0      0x184 objs/arch/cpu.o
                                        0x19c (size before relaxing)
 .eh_frame      0x0000000000032b34       0x20 objs/arch/mp.o
                                         0x38 (size before relaxing)
 .eh_frame      0x0000000000032b54      0x11c objs/arch/start.o
                                        0x134 (size before relaxing)
 .eh_frame      0x0000000000032c70      0x124 objs/arch/screen.o
                                        0x13c (size before relaxing)
 .eh_frame      0x0000000000032d94       0x54 objs/arch/gdt.o
                                         0x6c (size before relaxing)
 .eh_frame      0x0000000000032de8       0x6c objs/arch/fork.o
                                         0x84 (size before relaxing)
 .eh_frame      0x0000000000032e54      0x2d0 objs/arch/pagefault.o
                                        0x2e8 (size before relaxing)
 .eh_frame      0x0000000000033124      0x168 objs/arch/bios.o
                                        0x180 (size before relaxing)
 .eh_frame      0x000000000003328c      0x43c objs/arch/paging.o
                                        0x454 (size before relaxing)
 .eh_frame      0x00000000000336c8       0xc4 objs/arch/context.o
                                         0xdc (size before relaxing)
 .eh_frame      0x000000000003378c      0x3ac objs/arch/elf32_module.o
                                        0x3c4 (size before relaxing)
 .eh_frame      0x0000000000033b38       0xc4 objs/arch/spinlock.o
                                         0xdc (size before relaxing)
 .eh_frame      0x0000000000033bfc       0xc8 objs/arch/thread.o
                                         0xe0 (size before relaxing)
 .eh_frame      0x0000000000033cc4       0xf8 objs/arch/signal.o
                                        0x110 (size before relaxing)
 .eh_frame      0x0000000000033dbc       0x7c objs/arch/scheduler.o
                                         0x94 (size before relaxing)
 .eh_frame      0x0000000000033e38       0x98 objs/arch/interrupt.o
                                         0xb0 (size before relaxing)
 .eh_frame      0x0000000000033ed0      0x1cc objs/arch/elf32_application.o
                                        0x1e4 (size before relaxing)
 .eh_frame      0x000000000003409c       0x2c objs/arch/syscall.o
                                         0x44 (size before relaxing)
 .eh_frame      0x00000000000340c8      0x358 objs/arch/region.o
                                        0x370 (size before relaxing)
 .eh_frame      0x0000000000034420      0x184 objs/arch/exception.o
                                        0x19c (size before relaxing)
 .eh_frame      0x00000000000345a4       0x28 objs/arch/fpu.o
                                         0x40 (size before relaxing)
 .eh_frame      0x00000000000345cc       0x78 objs/arch/hwtime.o
                                         0x90 (size before relaxing)
 .eh_frame      0x0000000000034644       0xb8 objs/arch/debugger.o
                                         0xd0 (size before relaxing)
 .eh_frame      0x00000000000346fc      0x104 objs/arch/pit.o
                                        0x11c (size before relaxing)
 .eh_frame      0x0000000000034800      0x2f8 objs/x86emu/debug.o
                                        0x310 (size before relaxing)
 .eh_frame      0x0000000000034af8     0x144c objs/x86emu/prim_ops.o
                                       0x1464 (size before relaxing)
 .eh_frame      0x0000000000035f44     0x4a78 objs/x86emu/ops.o
                                       0x4a90 (size before relaxing)
 .eh_frame      0x000000000003a9bc      0x1b0 objs/x86emu/sys.o
                                        0x1c8 (size before relaxing)
 .eh_frame      0x000000000003ab6c      0x418 objs/x86emu/decode.o
                                        0x430 (size before relaxing)
 .eh_frame      0x000000000003af84      0x244 objs/x86emu/fpu.o
                                        0x25c (size before relaxing)
 .eh_frame      0x000000000003b1c8      0xf84 objs/x86emu/ops2.o
                                        0xf9c (size before relaxing)

.data           0x000000000003c160      0xba0
 *(.data)
 .data          0x000000000003c160        0x0 objs/time.o
 .data          0x000000000003c160        0x0 objs/icmp.o
 .data          0x000000000003c160        0x0 objs/elf.o
 .data          0x000000000003c160        0x0 objs/kernel.o
 .data          0x000000000003c160       0x68 objs/rootfs.o
 .data          0x000000000003c1c8        0x0 objs/interface.o
 .data          0x000000000003c1c8        0x0 objs/arp.o
 .data          0x000000000003c1c8        0x0 objs/fork.o
 *fill*         0x000000000003c1c8       0x18 
 .data          0x000000000003c1e0       0x68 objs/socket.o
                0x000000000003c1e0                socket_calls
 .data          0x000000000003c248        0x0 objs/process.o
 .data          0x000000000003c248        0x0 objs/blockcache.o
 .data          0x000000000003c248        0x0 objs/vfs.o
 .data          0x000000000003c248        0x0 objs/irq.o
 .data          0x000000000003c248        0x0 objs/context.o
 .data          0x000000000003c248        0x0 objs/ipv4.o
 .data          0x000000000003c248        0x0 objs/bootmodule.o
 .data          0x000000000003c248       0x10 objs/interpreter.o
 .data          0x000000000003c258        0x8 objs/version.o
                0x000000000003c258                build_time
                0x000000000003c25c                build_date
 .data          0x000000000003c260        0x0 objs/thread.o
 .data          0x000000000003c260        0x8 objs/console.o
 .data          0x000000000003c268        0x0 objs/init.o
 .data          0x000000000003c268        0x0 objs/signal.o
 .data          0x000000000003c268        0x0 objs/io_context.o
 .data          0x000000000003c268        0x0 objs/packet.o
 .data          0x000000000003c268        0x8 objs/scheduler.o
                0x000000000003c268                scheduler_lock
 .data          0x000000000003c270        0x0 objs/ipc.o
 .data          0x000000000003c270        0x8 objs/kmalloc.o
 .data          0x000000000003c278        0x0 objs/filesystem.o
 .data          0x000000000003c278        0x8 objs/pages.o
                0x000000000003c278                pages_lock
 .data          0x000000000003c280        0x0 objs/devices.o
 .data          0x000000000003c280        0x0 objs/route.o
 .data          0x000000000003c280        0x0 objs/syscall.o
 .data          0x000000000003c280        0x0 objs/inode.o
 .data          0x000000000003c280        0x0 objs/elf32.o
 .data          0x000000000003c280        0x0 objs/region.o
 .data          0x000000000003c280        0x0 objs/module.o
 .data          0x000000000003c280       0x1c objs/tcp.o
 .data          0x000000000003c29c        0x0 objs/waitqueue.o
 .data          0x000000000003c29c        0x0 objs/symbols.o
 .data          0x000000000003c29c        0x0 objs/debugger.o
 *fill*         0x000000000003c29c        0x4 
 .data          0x000000000003c2a0       0x68 objs/devfs.o
 .data          0x000000000003c308        0x4 objs/smp.o
                0x000000000003c308                processor_count
 .data          0x000000000003c30c        0x0 objs/sbrk.o
 .data          0x000000000003c30c        0x0 objs/loader.o
 .data          0x000000000003c30c        0x0 objs/lock/context.o
 .data          0x000000000003c30c        0x0 objs/lock/semaphore.o
 .data          0x000000000003c30c        0x0 objs/lock/mutex.o
 .data          0x000000000003c30c        0x0 objs/lock/common.o
 .data          0x000000000003c30c        0x0 objs/lock/condition.o
 .data          0x000000000003c30c        0x0 objs/lib/time.o
 .data          0x000000000003c30c        0x0 objs/lib/hashtable.o
 .data          0x000000000003c30c        0x0 objs/lib/circular.o
 .data          0x000000000003c30c        0x0 objs/lib/array.o
 .data          0x000000000003c30c        0x0 objs/lib/string.o
 .data          0x000000000003c30c        0x0 objs/lib/ctype.o
 .data          0x000000000003c30c        0x0 objs/lib/printf.o
 .data          0x000000000003c30c        0x0 objs/lib/stack.o
 .data          0x000000000003c30c        0x0 objs/lib/snprintf.o
 .data          0x000000000003c30c        0x0 objs/lib/udivmoddi4.o
 .data          0x000000000003c30c        0x4 objs/arch/apic.o
                0x000000000003c30c                local_apic_address
 *fill*         0x000000000003c310       0x10 
 .data          0x000000000003c320       0x68 objs/arch/cpu.o
                0x000000000003c320                i386_features
 .data          0x000000000003c388        0x0 objs/arch/isr.o
 .data          0x000000000003c388        0x0 objs/arch/switch.o
 .data          0x000000000003c388        0x0 objs/arch/boot.o
 .data          0x000000000003c388        0x0 objs/arch/mp.o
 .data          0x000000000003c388        0x0 objs/arch/start.o
 .data          0x000000000003c388       0x61 objs/arch/screen.o
 *fill*         0x000000000003c3e9       0x17 
 .data          0x000000000003c400       0x30 objs/arch/gdt.o
                0x000000000003c400                gdt
 .data          0x000000000003c430        0x0 objs/arch/fork.o
 .data          0x000000000003c430        0x0 objs/arch/atomic.o
 .data          0x000000000003c430        0x0 objs/arch/pagefault.o
 .data          0x000000000003c430       0x30 objs/arch/bios.o
 .data          0x000000000003c460        0x0 objs/arch/string.o
 .data          0x000000000003c460        0x0 objs/arch/paging.o
 .data          0x000000000003c460        0x0 objs/arch/context.o
 .data          0x000000000003c460        0x0 objs/arch/smp_entry.o
 .data          0x000000000003c460       0x1c objs/arch/elf32_module.o
 .data          0x000000000003c47c        0x0 objs/arch/spinlock.o
 .data          0x000000000003c47c        0x0 objs/arch/thread.o
 .data          0x000000000003c47c        0x0 objs/arch/network.o
 .data          0x000000000003c47c        0x0 objs/arch/signal.o
 .data          0x000000000003c47c        0x0 objs/arch/scheduler.o
 .data          0x000000000003c47c        0x2 objs/arch/interrupt.o
 *fill*         0x000000000003c47e        0x2 
 .data          0x000000000003c480       0x1c objs/arch/elf32_application.o
 .data          0x000000000003c49c        0x0 objs/arch/syscall.o
 .data          0x000000000003c49c        0x0 objs/arch/region.o
 .data          0x000000000003c49c        0x0 objs/arch/exception.o
 .data          0x000000000003c49c        0x0 objs/arch/fpu.o
 .data          0x000000000003c49c        0x0 objs/arch/i386.o
 .data          0x000000000003c49c        0x8 objs/arch/hwtime.o
 .data          0x000000000003c4a4        0x0 objs/arch/debugger.o
 .data          0x000000000003c4a4        0x8 objs/arch/pit.o
 .data          0x000000000003c4ac        0x0 objs/arch/smp.o
 .data          0x000000000003c4ac        0x0 objs/x86emu/debug.o
 .data          0x000000000003c4ac        0x0 objs/x86emu/prim_ops.o
 *fill*         0x000000000003c4ac       0x14 
 .data          0x000000000003c4c0      0x400 objs/x86emu/ops.o
                0x000000000003c4c0                x86emu_optab
 .data          0x000000000003c8c0       0x30 objs/x86emu/sys.o
                0x000000000003c8c0                sys_outl
                0x000000000003c8c4                sys_outw
                0x000000000003c8c8                sys_outb
                0x000000000003c8cc                sys_inl
                0x000000000003c8d0                sys_inw
                0x000000000003c8d4                sys_inb
                0x000000000003c8d8                sys_wrl
                0x000000000003c8dc                sys_wrw
                0x000000000003c8e0                sys_wrb
                0x000000000003c8e4                sys_rdl
                0x000000000003c8e8                sys_rdw
                0x000000000003c8ec                sys_rdb
 .data          0x000000000003c8f0        0x0 objs/x86emu/decode.o
 .data          0x000000000003c8f0        0x0 objs/x86emu/fpu.o
 *fill*         0x000000000003c8f0       0x10 
 .data          0x000000000003c900      0x400 objs/x86emu/ops2.o
                0x000000000003c900                x86emu_optab2
 *(.data.*)

.igot.plt       0x000000000003cd00        0x0
 .igot.plt      0x000000000003cd00        0x0 objs/time.o

.bss            0x000000000003cd00     0xc710
 *(.bss)
 .bss           0x000000000003cd00        0x0 objs/time.o
 .bss           0x000000000003cd00        0x0 objs/icmp.o
 .bss           0x000000000003cd00        0x0 objs/elf.o
 .bss           0x000000000003cd00     0x1104 objs/kernel.o
 *fill*         0x000000000003de04        0x4 
 .bss           0x000000000003de08       0x24 objs/rootfs.o
 .bss           0x000000000003de2c       0x20 objs/interface.o
 .bss           0x000000000003de4c       0x18 objs/arp.o
 .bss           0x000000000003de64        0x0 objs/fork.o
 *fill*         0x000000000003de64        0x4 
 .bss           0x000000000003de68       0x2c objs/socket.o
 .bss           0x000000000003de94       0x1c objs/process.o
 .bss           0x000000000003deb0        0x0 objs/blockcache.o
 .bss           0x000000000003deb0        0x0 objs/vfs.o
 *fill*         0x000000000003deb0       0x10 
 .bss           0x000000000003dec0       0x40 objs/irq.o
 .bss           0x000000000003df00        0x0 objs/context.o
 .bss           0x000000000003df00        0x0 objs/ipv4.o
 .bss           0x000000000003df00      0x484 objs/bootmodule.o
 .bss           0x000000000003e384        0x0 objs/interpreter.o
 .bss           0x000000000003e384        0x0 objs/version.o
 .bss           0x000000000003e384        0x4 objs/thread.o
 *fill*         0x000000000003e388       0x18 
 .bss           0x000000000003e3a0     0x802c objs/console.o
 .bss           0x00000000000463cc        0x0 objs/init.o
 .bss           0x00000000000463cc        0x0 objs/signal.o
 .bss           0x00000000000463cc        0x0 objs/io_context.o
 .bss           0x00000000000463cc        0x0 objs/packet.o
 .bss           0x00000000000463cc        0x0 objs/scheduler.o
 .bss           0x00000000000463cc       0x3c objs/ipc.o
 .bss           0x0000000000046408        0xc objs/kmalloc.o
 .bss           0x0000000000046414       0x1c objs/filesystem.o
 .bss           0x0000000000046430        0x0 objs/pages.o
 .bss           0x0000000000046430       0x1c objs/devices.o
 .bss           0x000000000004644c       0x1c objs/route.o
 .bss           0x0000000000046468        0x0 objs/syscall.o
 .bss           0x0000000000046468        0x0 objs/inode.o
 .bss           0x0000000000046468        0x0 objs/elf32.o
 .bss           0x0000000000046468        0x4 objs/region.o
 .bss           0x000000000004646c       0x1c objs/module.o
 .bss           0x0000000000046488       0x20 objs/tcp.o
 .bss           0x00000000000464a8        0x0 objs/waitqueue.o
 .bss           0x00000000000464a8       0x18 objs/symbols.o
 .bss           0x00000000000464c0        0x0 objs/debugger.o
 .bss           0x00000000000464c0       0x2c objs/devfs.o
 .bss           0x00000000000464ec        0x4 objs/smp.o
                0x00000000000464ec                active_processor_count
 .bss           0x00000000000464f0        0x0 objs/sbrk.o
 .bss           0x00000000000464f0        0x8 objs/loader.o
 .bss           0x00000000000464f8        0x0 objs/lock/context.o
 .bss           0x00000000000464f8        0x0 objs/lock/semaphore.o
 .bss           0x00000000000464f8        0x0 objs/lock/mutex.o
 .bss           0x00000000000464f8        0x0 objs/lock/common.o
 .bss           0x00000000000464f8        0x0 objs/lock/condition.o
 .bss           0x00000000000464f8        0x0 objs/lib/time.o
 .bss           0x00000000000464f8        0x0 objs/lib/hashtable.o
 .bss           0x00000000000464f8        0x0 objs/lib/circular.o
 .bss           0x00000000000464f8        0x0 objs/lib/array.o
 .bss           0x00000000000464f8        0x0 objs/lib/string.o
 .bss           0x00000000000464f8        0x0 objs/lib/ctype.o
 .bss           0x00000000000464f8        0x0 objs/lib/printf.o
 .bss           0x00000000000464f8        0x0 objs/lib/stack.o
 .bss           0x00000000000464f8        0x0 objs/lib/snprintf.o
 .bss           0x00000000000464f8        0x0 objs/lib/udivmoddi4.o
 .bss           0x00000000000464f8        0xc objs/arch/apic.o
                0x00000000000464f8                local_apic_base
                0x00000000000464fc                apic_present
 .bss           0x0000000000046504        0x0 objs/arch/cpu.o
 .bss           0x0000000000046504        0x0 objs/arch/isr.o
 .bss           0x0000000000046504        0x0 objs/arch/switch.o
 .bss           0x0000000000046504     0x2000 objs/arch/boot.o
                0x0000000000048504                _kernel_stack_top
 .bss           0x0000000000048504        0x0 objs/arch/mp.o
 .bss           0x0000000000048504        0x0 objs/arch/start.o
 .bss           0x0000000000048504        0x4 objs/arch/screen.o
 .bss           0x0000000000048508        0x0 objs/arch/gdt.o
 .bss           0x0000000000048508        0x0 objs/arch/fork.o
 .bss           0x0000000000048508        0x0 objs/arch/atomic.o
 .bss           0x0000000000048508        0x0 objs/arch/pagefault.o
 .bss           0x0000000000048508        0x8 objs/arch/bios.o
 .bss           0x0000000000048510        0x0 objs/arch/string.o
 .bss           0x0000000000048510        0x4 objs/arch/paging.o
 .bss           0x0000000000048514        0x0 objs/arch/context.o
 .bss           0x0000000000048514        0x0 objs/arch/smp_entry.o
 .bss           0x0000000000048514        0x0 objs/arch/elf32_module.o
 .bss           0x0000000000048514        0x0 objs/arch/spinlock.o
 .bss           0x0000000000048514        0x0 objs/arch/thread.o
 .bss           0x0000000000048514        0x0 objs/arch/network.o
 .bss           0x0000000000048514        0x0 objs/arch/signal.o
 .bss           0x0000000000048514        0x0 objs/arch/scheduler.o
 .bss           0x0000000000048514        0x0 objs/arch/interrupt.o
 .bss           0x0000000000048514        0x0 objs/arch/elf32_application.o
 .bss           0x0000000000048514        0x0 objs/arch/syscall.o
 .bss           0x0000000000048514        0x0 objs/arch/region.o
 .bss           0x0000000000048514        0x0 objs/arch/exception.o
 .bss           0x0000000000048514        0x0 objs/arch/fpu.o
 .bss           0x0000000000048514        0x0 objs/arch/i386.o
 .bss           0x0000000000048514        0x0 objs/arch/hwtime.o
 .bss           0x0000000000048514        0x0 objs/arch/debugger.o
 *fill*         0x0000000000048514        0x4 
 .bss           0x0000000000048518       0x10 objs/arch/pit.o
 .bss           0x0000000000048528        0x0 objs/arch/smp.o
 .bss           0x0000000000048528        0x0 objs/x86emu/debug.o
 .bss           0x0000000000048528        0x0 objs/x86emu/prim_ops.o
 .bss           0x0000000000048528        0x0 objs/x86emu/ops.o
 .bss           0x0000000000048528        0x0 objs/x86emu/sys.o
 .bss           0x0000000000048528        0x0 objs/x86emu/decode.o
 .bss           0x0000000000048528        0x0 objs/x86emu/fpu.o
 .bss           0x0000000000048528        0x8 objs/x86emu/ops2.o
 *(.bss.*)
 COMMON         0x0000000000048530       0x18 objs/vfs.o
                0x0000000000048530                kernel_io_context
                0x0000000000048544                mount_points
 *fill*         0x0000000000048548       0x18 
 COMMON         0x0000000000048560       0x20 objs/context.o
                0x0000000000048560                kernel_memory_context
 COMMON         0x0000000000048580       0x18 objs/thread.o
                0x0000000000048580                thread_table
 COMMON         0x0000000000048598        0x4 objs/init.o
                0x0000000000048598                init_thread_id
 COMMON         0x000000000004859c       0x18 objs/scheduler.o
                0x000000000004859c                last_ready
                0x00000000000485a0                first_ready
                0x00000000000485a4                first_expired
                0x00000000000485a8                sleep_queue
                0x00000000000485b0                last_expired
 *fill*         0x00000000000485b4        0xc 
 COMMON         0x00000000000485c0       0x50 objs/pages.o
                0x00000000000485c0                memory_size
                0x00000000000485c8                memory_pages
                0x00000000000485e0                memory_descriptors
 COMMON         0x0000000000048610       0x1c objs/region.o
                0x0000000000048610                region_lock
                0x0000000000048614                region_table
 COMMON         0x000000000004862c        0x4 objs/module.o
                0x000000000004862c                module_loader
 *fill*         0x0000000000048630       0x10 
 COMMON         0x0000000000048640       0x68 objs/smp.o
                0x0000000000048640                processor_table
 *fill*         0x00000000000486a8       0x18 
 COMMON         0x00000000000486c0       0x24 objs/lock/context.o
                0x00000000000486c0                kernel_lock_context
 COMMON         0x00000000000486e4        0x4 objs/arch/apic.o
                0x00000000000486e4                lapic_region
 *fill*         0x00000000000486e8       0x18 
 COMMON         0x0000000000048700       0x80 objs/arch/cpu.o
                0x0000000000048700                arch_processor_table
 COMMON         0x0000000000048780       0x34 objs/arch/start.o
                0x0000000000048780                mb_header
 *fill*         0x00000000000487b4        0xc 
 COMMON         0x00000000000487c0      0x800 objs/arch/interrupt.o
                0x00000000000487c0                idt
 COMMON         0x0000000000048fc0      0x450 objs/x86emu/sys.o
                0x0000000000048fc0                _X86EMU_intrTab
                0x00000000000493c0                _X86EMU_env
                0x0000000000049410                __k_init_start = .

.kinit          0x0000000000049410     0x24b6
 *(.kernel_init)
 .kernel_init   0x0000000000049410      0x108 objs/kernel.o
                0x0000000000049410                parse_kernel_parameters
                0x00000000000494b4                kernel_main
 .kernel_init   0x0000000000049518      0x16d objs/rootfs.o
                0x0000000000049518                init_root_filesystem
 *fill*         0x0000000000049685        0x3 
 .kernel_init   0x0000000000049688      0x33c objs/interface.o
                0x0000000000049688                create_network_interfaces
                0x0000000000049960                init_network_interfaces
 .kernel_init   0x00000000000499c4       0x2b objs/arp.o
                0x00000000000499c4                init_arp
 *fill*         0x00000000000499ef        0x1 
 .kernel_init   0x00000000000499f0       0xc3 objs/socket.o
                0x00000000000499f0                init_socket
 *fill*         0x0000000000049ab3        0x1 
 .kernel_init   0x0000000000049ab4       0xbf objs/process.o
                0x0000000000049ab4                init_processes
 *fill*         0x0000000000049b73        0x1 
 .kernel_init   0x0000000000049b74       0x80 objs/vfs.o
                0x0000000000049b74                init_vfs
 .kernel_init   0x0000000000049bf4       0x17 objs/irq.o
                0x0000000000049bf4                init_irq_handlers
 *fill*         0x0000000000049c0b        0x1 
 .kernel_init   0x0000000000049c0c      0x108 objs/bootmodule.o
                0x0000000000049c0c                init_bootmodules
 .kernel_init   0x0000000000049d14       0x1a objs/interpreter.o
                0x0000000000049d14                init_interpreter_loader
 *fill*         0x0000000000049d2e        0x2 
 .kernel_init   0x0000000000049d30       0x2e objs/thread.o
                0x0000000000049d30                init_threads
 *fill*         0x0000000000049d5e        0x2 
 .kernel_init   0x0000000000049d60      0x11e objs/init.o
                0x0000000000049e48                create_init_thread
 *fill*         0x0000000000049e7e        0x2 
 .kernel_init   0x0000000000049e80       0x42 objs/scheduler.o
                0x0000000000049e80                init_scheduler
 *fill*         0x0000000000049ec2        0x2 
 .kernel_init   0x0000000000049ec4       0xd0 objs/ipc.o
                0x0000000000049ec4                init_ipc
 .kernel_init   0x0000000000049f94       0x20 objs/kmalloc.o
                0x0000000000049f94                init_kmalloc
 .kernel_init   0x0000000000049fb4       0x61 objs/filesystem.o
                0x0000000000049fb4                init_filesystems
 *fill*         0x000000000004a015        0x3 
 .kernel_init   0x000000000004a018       0xe0 objs/pages.o
                0x000000000004a018                register_memory_type
                0x000000000004a064                init_page_allocator
                0x000000000004a0c4                init_page_allocator_late
 .kernel_init   0x000000000004a0f8       0x64 objs/devices.o
                0x000000000004a0f8                init_devices
 .kernel_init   0x000000000004a15c       0x61 objs/route.o
                0x000000000004a15c                init_routes
 *fill*         0x000000000004a1bd        0x3 
 .kernel_init   0x000000000004a1c0      0x164 objs/elf32.o
                0x000000000004a1c0                init_elf32_kernel_symbols
 .kernel_init   0x000000000004a324       0x86 objs/region.o
                0x000000000004a324                preinit_regions
                0x000000000004a354                init_regions
 *fill*         0x000000000004a3aa        0x2 
 .kernel_init   0x000000000004a3ac       0x6c objs/module.o
                0x000000000004a3ac                init_module_loader
 .kernel_init   0x000000000004a418       0x9b objs/tcp.o
                0x000000000004a418                init_tcp
 *fill*         0x000000000004a4b3        0x1 
 .kernel_init   0x000000000004a4b4       0x90 objs/devfs.o
                0x000000000004a4b4                init_devfs
 .kernel_init   0x000000000004a544       0xcc objs/smp.o
                0x000000000004a544                init_smp
                0x000000000004a56c                init_smp_late
 .kernel_init   0x000000000004a610       0x17 objs/loader.o
                0x000000000004a610                init_application_loader
 *fill*         0x000000000004a627        0x1 
 .kernel_init   0x000000000004a628      0x1d2 objs/arch/apic.o
                0x000000000004a628                calibrate_apic_timer
                0x000000000004a6c8                setup_local_apic
                0x000000000004a6f8                init_apic
                0x000000000004a7b0                init_apic_timer
 *fill*         0x000000000004a7fa        0x2 
 .kernel_init   0x000000000004a7fc      0x3e0 objs/arch/cpu.o
                0x000000000004a7fc                detect_cpu
                0x000000000004ab34                cpu_calibrate_speed
 .kernel_init   0x000000000004abdc       0x21 objs/arch/boot.o
                0x000000000004abdc                _start
 *fill*         0x000000000004abfd        0x3 
 .kernel_init   0x000000000004ac00       0x18 objs/arch/mp.o
                0x000000000004ac00                init_mp
 .kernel_init   0x000000000004ac18      0x476 objs/arch/start.o
                0x000000000004ac18                arch_start
                0x000000000004b058                arch_late_init
 *fill*         0x000000000004b08e        0x2 
 .kernel_init   0x000000000004b090       0x62 objs/arch/screen.o
                0x000000000004b090                init_screen
 *fill*         0x000000000004b0f2        0x2 
 .kernel_init   0x000000000004b0f4       0x22 objs/arch/gdt.o
                0x000000000004b0f4                init_gdt
 *fill*         0x000000000004b116        0x2 
 .kernel_init   0x000000000004b118       0x7b objs/arch/bios.o
                0x000000000004b118                init_bios_access
 *fill*         0x000000000004b193        0x1 
 .kernel_init   0x000000000004b194      0x1db objs/arch/paging.o
                0x000000000004b194                init_paging
 *fill*         0x000000000004b36f        0x1 
 .kernel_init   0x000000000004b370       0x13 objs/arch/elf32_module.o
                0x000000000004b370                init_elf32_module_loader
 *fill*         0x000000000004b383        0x1 
 .kernel_init   0x000000000004b384      0x482 objs/arch/interrupt.o
                0x000000000004b384                init_interrupts
 *fill*         0x000000000004b806        0x2 
 .kernel_init   0x000000000004b808       0x13 objs/arch/elf32_application.o
                0x000000000004b808                init_elf32_application_loader
 .kernel_init   0x000000000004b81b       0x14 objs/arch/i386.o
                0x000000000004b81b                reload_segment_descriptors
 *fill*         0x000000000004b82f        0x1 
 .kernel_init   0x000000000004b830       0x96 objs/arch/pit.o
                0x000000000004b830                init_system_time
                0x000000000004b89c                init_pit
                0x000000000004b8c6                __kernel_end = .
LOAD objs/time.o
LOAD objs/icmp.o
LOAD objs/elf.o
LOAD objs/kernel.o
LOAD objs/rootfs.o
LOAD objs/interface.o
LOAD objs/arp.o
LOAD objs/fork.o
LOAD objs/socket.o
LOAD objs/process.o
LOAD objs/blockcache.o
LOAD objs/vfs.o
LOAD objs/irq.o
LOAD objs/context.o
LOAD objs/ipv4.o
LOAD objs/bootmodule.o
LOAD objs/interpreter.o
LOAD objs/version.o
LOAD objs/thread.o
LOAD objs/console.o
LOAD objs/init.o
LOAD objs/signal.o
LOAD objs/io_context.o
LOAD objs/packet.o
LOAD objs/scheduler.o
LOAD objs/ipc.o
LOAD objs/kmalloc.o
LOAD objs/filesystem.o
LOAD objs/pages.o
LOAD objs/devices.o
LOAD objs/route.o
LOAD objs/syscall.o
LOAD objs/inode.o
LOAD objs/elf32.o
LOAD objs/region.o
LOAD objs/module.o
LOAD objs/tcp.o
LOAD objs/waitqueue.o
LOAD objs/symbols.o
LOAD objs/debugger.o
LOAD objs/devfs.o
LOAD objs/smp.o
LOAD objs/sbrk.o
LOAD objs/loader.o
LOAD objs/lock/context.o
LOAD objs/lock/semaphore.o
LOAD objs/lock/mutex.o
LOAD objs/lock/common.o
LOAD objs/lock/condition.o
LOAD objs/lib/time.o
LOAD objs/lib/hashtable.o
LOAD objs/lib/circular.o
LOAD objs/lib/array.o
LOAD objs/lib/string.o
LOAD objs/lib/ctype.o
LOAD objs/lib/printf.o
LOAD objs/lib/stack.o
LOAD objs/lib/snprintf.o
LOAD objs/lib/udivmoddi4.o
LOAD objs/arch/apic.o
LOAD objs/arch/cpu.o
LOAD objs/arch/isr.o
LOAD objs/arch/switch.o
LOAD objs/arch/boot.o
LOAD objs/arch/mp.o
LOAD objs/arch/start.o
LOAD objs/arch/screen.o
LOAD objs/arch/gdt.o
LOAD objs/arch/fork.o
LOAD objs/arch/atomic.o
LOAD objs/arch/pagefault.o
LOAD objs/arch/bios.o
LOAD objs/arch/string.o
LOAD objs/arch/paging.o
LOAD objs/arch/context.o
LOAD objs/arch/smp_entry.o
LOAD objs/arch/elf32_module.o
LOAD objs/arch/spinlock.o
LOAD objs/arch/thread.o
LOAD objs/arch/network.o
LOAD objs/arch/signal.o
LOAD objs/arch/scheduler.o
LOAD objs/arch/interrupt.o
LOAD objs/arch/elf32_application.o
LOAD objs/arch/syscall.o
LOAD objs/arch/region.o
LOAD objs/arch/exception.o
LOAD objs/arch/fpu.o
LOAD objs/arch/i386.o
LOAD objs/arch/hwtime.o
LOAD objs/arch/debugger.o
LOAD objs/arch/pit.o
LOAD objs/arch/smp.o
LOAD objs/x86emu/debug.o
LOAD objs/x86emu/prim_ops.o
LOAD objs/x86emu/ops.o
LOAD objs/x86emu/sys.o
LOAD objs/x86emu/decode.o
LOAD objs/x86emu/fpu.o
LOAD objs/x86emu/ops2.o
OUTPUT(objs/kernel elf32-i386)

.rel.dyn        0x000000000004b8c8        0x0
 .rel.iplt      0x000000000004b8c8        0x0 objs/time.o
 .rel.text      0x000000000004b8c8        0x0 objs/time.o
 .rel.kernel_init
                0x000000000004b8c8        0x0 objs/time.o
 .rel.rodata    0x000000000004b8c8        0x0 objs/time.o
 .rel.data      0x000000000004b8c8        0x0 objs/time.o

.comment        0x0000000000000000       0x1d
 .comment       0x0000000000000000       0x1d objs/time.o
                                         0x1e (size before relaxing)
 .comment       0x000000000000001d       0x1e objs/icmp.o
 .comment       0x000000000000001d       0x1e objs/elf.o
 .comment       0x000000000000001d       0x1e objs/kernel.o
 .comment       0x000000000000001d       0x1e objs/rootfs.o
 .comment       0x000000000000001d       0x1e objs/interface.o
 .comment       0x000000000000001d       0x1e objs/arp.o
 .comment       0x000000000000001d       0x1e objs/fork.o
 .comment       0x000000000000001d       0x1e objs/socket.o
 .comment       0x000000000000001d       0x1e objs/process.o
 .comment       0x000000000000001d       0x1e objs/blockcache.o
 .comment       0x000000000000001d       0x1e objs/vfs.o
 .comment       0x000000000000001d       0x1e objs/irq.o
 .comment       0x000000000000001d       0x1e objs/context.o
 .comment       0x000000000000001d       0x1e objs/ipv4.o
 .comment       0x000000000000001d       0x1e objs/bootmodule.o
 .comment       0x000000000000001d       0x1e objs/interpreter.o
 .comment       0x000000000000001d       0x1e objs/version.o
 .comment       0x000000000000001d       0x1e objs/thread.o
 .comment       0x000000000000001d       0x1e objs/console.o
 .comment       0x000000000000001d       0x1e objs/init.o
 .comment       0x000000000000001d       0x1e objs/signal.o
 .comment       0x000000000000001d       0x1e objs/io_context.o
 .comment       0x000000000000001d       0x1e objs/packet.o
 .comment       0x000000000000001d       0x1e objs/scheduler.o
 .comment       0x000000000000001d       0x1e objs/ipc.o
 .comment       0x000000000000001d       0x1e objs/kmalloc.o
 .comment       0x000000000000001d       0x1e objs/filesystem.o
 .comment       0x000000000000001d       0x1e objs/pages.o
 .comment       0x000000000000001d       0x1e objs/devices.o
 .comment       0x000000000000001d       0x1e objs/route.o
 .comment       0x000000000000001d       0x1e objs/syscall.o
 .comment       0x000000000000001d       0x1e objs/inode.o
 .comment       0x000000000000001d       0x1e objs/elf32.o
 .comment       0x000000000000001d       0x1e objs/region.o
 .comment       0x000000000000001d       0x1e objs/module.o
 .comment       0x000000000000001d       0x1e objs/tcp.o
 .comment       0x000000000000001d       0x1e objs/waitqueue.o
 .comment       0x000000000000001d       0x1e objs/symbols.o
 .comment       0x000000000000001d       0x1e objs/debugger.o
 .comment       0x000000000000001d       0x1e objs/devfs.o
 .comment       0x000000000000001d       0x1e objs/smp.o
 .comment       0x000000000000001d       0x1e objs/sbrk.o
 .comment       0x000000000000001d       0x1e objs/loader.o
 .comment       0x000000000000001d       0x1e objs/lock/context.o
 .comment       0x000000000000001d       0x1e objs/lock/semaphore.o
 .comment       0x000000000000001d       0x1e objs/lock/mutex.o
 .comment       0x000000000000001d       0x1e objs/lock/common.o
 .comment       0x000000000000001d       0x1e objs/lock/condition.o
 .comment       0x000000000000001d       0x1e objs/lib/time.o
 .comment       0x000000000000001d       0x1e objs/lib/hashtable.o
 .comment       0x000000000000001d       0x1e objs/lib/circular.o
 .comment       0x000000000000001d       0x1e objs/lib/array.o
 .comment       0x000000000000001d       0x1e objs/lib/string.o
 .comment       0x000000000000001d       0x1e objs/lib/ctype.o
 .comment       0x000000000000001d       0x1e objs/lib/printf.o
 .comment       0x000000000000001d       0x1e objs/lib/stack.o
 .comment       0x000000000000001d       0x1e objs/lib/snprintf.o
 .comment       0x000000000000001d       0x1e objs/lib/udivmoddi4.o
 .comment       0x000000000000001d       0x1e objs/arch/apic.o
 .comment       0x000000000000001d       0x1e objs/arch/cpu.o
 .comment       0x000000000000001d       0x1e objs/arch/mp.o
 .comment       0x000000000000001d       0x1e objs/arch/start.o
 .comment       0x000000000000001d       0x1e objs/arch/screen.o
 .comment       0x000000000000001d       0x1e objs/arch/gdt.o
 .comment       0x000000000000001d       0x1e objs/arch/fork.o
 .comment       0x000000000000001d       0x1e objs/arch/pagefault.o
 .comment       0x000000000000001d       0x1e objs/arch/bios.o
 .comment       0x000000000000001d       0x1e objs/arch/paging.o
 .comment       0x000000000000001d       0x1e objs/arch/context.o
 .comment       0x000000000000001d       0x1e objs/arch/elf32_module.o
 .comment       0x000000000000001d       0x1e objs/arch/spinlock.o
 .comment       0x000000000000001d       0x1e objs/arch/thread.o
 .comment       0x000000000000001d       0x1e objs/arch/signal.o
 .comment       0x000000000000001d       0x1e objs/arch/scheduler.o
 .comment       0x000000000000001d       0x1e objs/arch/interrupt.o
 .comment       0x000000000000001d       0x1e objs/arch/elf32_application.o
 .comment       0x000000000000001d       0x1e objs/arch/syscall.o
 .comment       0x000000000000001d       0x1e objs/arch/region.o
 .comment       0x000000000000001d       0x1e objs/arch/exception.o
 .comment       0x000000000000001d       0x1e objs/arch/fpu.o
 .comment       0x000000000000001d       0x1e objs/arch/hwtime.o
 .comment       0x000000000000001d       0x1e objs/arch/debugger.o
 .comment       0x000000000000001d       0x1e objs/arch/pit.o
 .comment       0x000000000000001d       0x1e objs/arch/smp.o
 .comment       0x000000000000001d       0x1e objs/x86emu/debug.o
 .comment       0x000000000000001d       0x1e objs/x86emu/prim_ops.o
 .comment       0x000000000000001d       0x1e objs/x86emu/ops.o
 .comment       0x000000000000001d       0x1e objs/x86emu/sys.o
 .comment       0x000000000000001d       0x1e objs/x86emu/decode.o
 .comment       0x000000000000001d       0x1e objs/x86emu/fpu.o
 .comment       0x000000000000001d       0x1e objs/x86emu/ops2.o

.note.GNU-stack
                0x0000000000000000        0x0
 .note.GNU-stack
                0x0000000000000000        0x0 objs/time.o
 .note.GNU-stack
                0x0000000000000000        0x0 objs/icmp.o
 .note.GNU-stack
                0x0000000000000000        0x0 objs/elf.o
 .note.GNU-stack
                0x0000000000000000        0x0 objs/kernel.o
 .note.GNU-stack
                0x0000000000000000        0x0 objs/rootfs.o
 .note.GNU-stack
                0x0000000000000000        0x0 objs/interface.o
 .note.GNU-stack
                0x0000000000000000        0x0 objs/arp.o
 .note.GNU-stack
                0x0000000000000000        0x0 objs/fork.o
 .note.GNU-stack
                0x0000000000000000        0x0 objs/socket.o
 .note.GNU-stack
                0x0000000000000000        0x0 objs/process.o
 .note.GNU-stack
                0x0000000000000000        0x0 objs/blockcache.o
 .note.GNU-stack
                0x0000000000000000        0x0 objs/vfs.o
 .note.GNU-stack
                0x0000000000000000        0x0 objs/irq.o
 .note.GNU-stack
                0x0000000000000000        0x0 objs/context.o
 .note.GNU-stack
                0x0000000000000000        0x0 objs/ipv4.o
 .note.GNU-stack
                0x0000000000000000        0x0 objs/bootmodule.o
 .note.GNU-stack
                0x0000000000000000        0x0 objs/interpreter.o
 .note.GNU-stack
                0x0000000000000000        0x0 objs/version.o
 .note.GNU-stack
                0x0000000000000000        0x0 objs/thread.o
 .note.GNU-stack
                0x0000000000000000        0x0 objs/console.o
 .note.GNU-stack
                0x0000000000000000        0x0 objs/init.o
 .note.GNU-stack
                0x0000000000000000        0x0 objs/signal.o
 .note.GNU-stack
                0x0000000000000000        0x0 objs/io_context.o
 .note.GNU-stack
                0x0000000000000000        0x0 objs/packet.o
 .note.GNU-stack
                0x0000000000000000        0x0 objs/scheduler.o
 .note.GNU-stack
                0x0000000000000000        0x0 objs/ipc.o
 .note.GNU-stack
                0x0000000000000000        0x0 objs/kmalloc.o
 .note.GNU-stack
                0x0000000000000000        0x0 objs/filesystem.o
 .note.GNU-stack
                0x0000000000000000        0x0 objs/pages.o
 .note.GNU-stack
                0x0000000000000000        0x0 objs/devices.o
 .note.GNU-stack
                0x0000000000000000        0x0 objs/route.o
 .note.GNU-stack
                0x0000000000000000        0x0 objs/syscall.o
 .note.GNU-stack
                0x0000000000000000        0x0 objs/inode.o
 .note.GNU-stack
                0x0000000000000000        0x0 objs/elf32.o
 .note.GNU-stack
                0x0000000000000000        0x0 objs/region.o
 .note.GNU-stack
                0x0000000000000000        0x0 objs/module.o
 .note.GNU-stack
                0x0000000000000000        0x0 objs/tcp.o
 .note.GNU-stack
                0x0000000000000000        0x0 objs/waitqueue.o
 .note.GNU-stack
                0x0000000000000000        0x0 objs/symbols.o
 .note.GNU-stack
                0x0000000000000000        0x0 objs/debugger.o
 .note.GNU-stack
                0x0000000000000000        0x0 objs/devfs.o
 .note.GNU-stack
                0x0000000000000000        0x0 objs/smp.o
 .note.GNU-stack
                0x0000000000000000        0x0 objs/sbrk.o
 .note.GNU-stack
                0x0000000000000000        0x0 objs/loader.o
 .note.GNU-stack
                0x0000000000000000        0x0 objs/lock/context.o
 .note.GNU-stack
                0x0000000000000000        0x0 objs/lock/semaphore.o
 .note.GNU-stack
                0x0000000000000000        0x0 objs/lock/mutex.o
 .note.GNU-stack
                0x0000000000000000        0x0 objs/lock/common.o
 .note.GNU-stack
                0x0000000000000000        0x0 objs/lock/condition.o
 .note.GNU-stack
                0x0000000000000000        0x0 objs/lib/time.o
 .note.GNU-stack
                0x0000000000000000        0x0 objs/lib/hashtable.o
 .note.GNU-stack
                0x0000000000000000        0x0 objs/lib/circular.o
 .note.GNU-stack
                0x0000000000000000        0x0 objs/lib/array.o
 .note.GNU-stack
                0x0000000000000000        0x0 objs/lib/string.o
 .note.GNU-stack
                0x0000000000000000        0x0 objs/lib/ctype.o
 .note.GNU-stack
                0x0000000000000000        0x0 objs/lib/printf.o
 .note.GNU-stack
                0x0000000000000000        0x0 objs/lib/stack.o
 .note.GNU-stack
                0x0000000000000000        0x0 objs/lib/snprintf.o
 .note.GNU-stack
                0x0000000000000000        0x0 objs/lib/udivmoddi4.o
 .note.GNU-stack
                0x0000000000000000        0x0 objs/arch/apic.o
 .note.GNU-stack
                0x0000000000000000        0x0 objs/arch/cpu.o
 .note.GNU-stack
                0x0000000000000000        0x0 objs/arch/mp.o
 .note.GNU-stack
                0x0000000000000000        0x0 objs/arch/start.o
 .note.GNU-stack
                0x0000000000000000        0x0 objs/arch/screen.o
 .note.GNU-stack
                0x0000000000000000        0x0 objs/arch/gdt.o
 .note.GNU-stack
                0x0000000000000000        0x0 objs/arch/fork.o
 .note.GNU-stack
                0x0000000000000000        0x0 objs/arch/pagefault.o
 .note.GNU-stack
                0x0000000000000000        0x0 objs/arch/bios.o
 .note.GNU-stack
                0x0000000000000000        0x0 objs/arch/paging.o
 .note.GNU-stack
                0x0000000000000000        0x0 objs/arch/context.o
 .note.GNU-stack
                0x0000000000000000        0x0 objs/arch/elf32_module.o
 .note.GNU-stack
                0x0000000000000000        0x0 objs/arch/spinlock.o
 .note.GNU-stack
                0x0000000000000000        0x0 objs/arch/thread.o
 .note.GNU-stack
                0x0000000000000000        0x0 objs/arch/signal.o
 .note.GNU-stack
                0x0000000000000000        0x0 objs/arch/scheduler.o
 .note.GNU-stack
                0x0000000000000000        0x0 objs/arch/interrupt.o
 .note.GNU-stack
                0x0000000000000000        0x0 objs/arch/elf32_application.o
 .note.GNU-stack
                0x0000000000000000        0x0 objs/arch/syscall.o
 .note.GNU-stack
                0x0000000000000000        0x0 objs/arch/region.o
 .note.GNU-stack
                0x0000000000000000        0x0 objs/arch/exception.o
 .note.GNU-stack
                0x0000000000000000        0x0 objs/arch/fpu.o
 .note.GNU-stack
                0x0000000000000000        0x0 objs/arch/hwtime.o
 .note.GNU-stack
                0x0000000000000000        0x0 objs/arch/debugger.o
 .note.GNU-stack
                0x0000000000000000        0x0 objs/arch/pit.o
 .note.GNU-stack
                0x0000000000000000        0x0 objs/arch/smp.o
 .note.GNU-stack
                0x0000000000000000        0x0 objs/x86emu/debug.o
 .note.GNU-stack
                0x0000000000000000        0x0 objs/x86emu/prim_ops.o
 .note.GNU-stack
                0x0000000000000000        0x0 objs/x86emu/ops.o
 .note.GNU-stack
                0x0000000000000000        0x0 objs/x86emu/sys.o
 .note.GNU-stack
                0x0000000000000000        0x0 objs/x86emu/decode.o
 .note.GNU-stack
                0x0000000000000000        0x0 objs/x86emu/fpu.o
 .note.GNU-stack
                0x0000000000000000        0x0 objs/x86emu/ops2.o
patching file zlib-1.2.3/pbuild.xml
patching file libpng-1.2.41/config.h
patching file libpng-1.2.41/pbuild.xml
ource/kernel/src/lock/semaphore.c
[GCC    ] source/kernel/src/lock/common.c
[GCC    ] source/kernel/src/lib/string.c
[GCC    ] source/kernel/src/lib/printf.c
[GCC    ] source/kernel/src/lib/hashtable.c
[GCC    ] source/kernel/src/lib/udivmoddi4.c
[GCC    ] source/kernel/src/lib/snprintf.c
[GCC    ] source/kernel/src/lib/time.c
[GCC    ] source/kernel/src/lib/ctype.c
[GCC    ] source/kernel/src/lib/circular.c
[GCC    ] source/kernel/src/lib/stack.c
[GCC    ] source/kernel/src/lib/array.c

Linking kernel binary

[LD    ] source/kernel/objs/kernel
Compiling PCI busmanager

[GCC    ] source/drivers/bus/pci/pci.c
[GCC    ] source/drivers/bus/pci/devices.c

Linking PCI busmanager

[GCC    ] source/drivers/bus/pci/objs/pci

Compiling PATA disk driver

[GCC    ] source/drivers/disk/pata/pata.c
[GCC    ] source/drivers/disk/pata/controller.c
[GCC    ] source/drivers/disk/pata/port.c
[GCC    ] source/drivers/disk/pata/command.c
[GCC    ] source/drivers/disk/pata/pio.c
[GCC    ] source/drivers/disk/pata/disk.c
[GCC    ] source/drivers/disk/pata/cdrom.c

Linking PATA disk driver

[GCC    ] source/drivers/disk/pata/objs/pata

Compiling RAM disk driver

[GCC    ] source/drivers/disk/ramdisk/ramdisk.c
[GCC    ] source/drivers/disk/ramdisk/control.c

Linking RAM disk driver

[GCC    ] source/drivers/disk/ramdisk/objs/ramdisk

Compiling partition parser

[GCC    ] source/drivers/disk/partition/partition.c
[GCC    ] source/drivers/disk/partition/msdos.c

Linking partition parser

[GCC    ] source/drivers/disk/partition/objs/partition

Compiling ISO9660 filesystem driver

[GCC    ] source/drivers/filesystem/iso9660/iso9660.c

Linking ISO9660 filesystem driver

[GCC    ] source/drivers/filesystem/iso9660/objs/iso9660

Compiling ext2 filesystem driver

[GCC    ] source/drivers/filesystem/ext2/ext2.c
[GCC    ] source/drivers/filesystem/ext2/inode.c
[GCC    ] source/drivers/filesystem/ext2/directory.c
[GCC    ] source/drivers/filesystem/ext2/block.c

Linking ext2 filesystem driver

[GCC    ] source/drivers/filesystem/ext2/objs/ext2

Compiling RAM filesystem driver

[GCC    ] source/drivers/filesystem/ramfs/ramfs.c

Linking RAM filesystem driver

[GCC    ] source/drivers/filesystem/ramfs/objs/process

Compiling PS/2 keyboard and mouse driver

[GCC    ] source/drivers/input/ps2/ps2.c
[GCC    ] source/drivers/input/ps2/kbd.c
[GCC    ] source/drivers/input/ps2/mouse.c
[GCC    ] source/drivers/input/ps2/buffer.c

Linking PS/2 keyboard and mouse driver

[LD     ] source/drivers/input/ps2/objs/ps2

Compiling input driver

[GCC    ] source/drivers/input/input/input.c
[GCC    ] source/drivers/input/input/control.c
[GCC    ] source/drivers/input/input/driver.c
[GCC    ] source/drivers/input/input/node.c
[GCC    ] source/drivers/input/input/ps2keyboard/ps2keyboard.c
[GCC    ] source/drivers/input/input/ps2keyboard/keymap.c
[GCC    ] source/drivers/input/input/ps2mouse/ps2mouse.c

Linking input driver

[GCC    ] source/drivers/input/input/objs/input

Compiling terminal driver

[GCC    ] source/drivers/char/terminal/terminal.c
[GCC    ] source/drivers/char/terminal/pty.c
[GCC    ] source/drivers/char/terminal/kterm.c
[GCC    ] source/drivers/char/terminal/control.c
[GCC    ] source/drivers/char/terminal/input.c

Linking terminal driver

[GCC    ] source/drivers/char/terminal/objs/terminal

Compiling VESA video driver

[GCC    ] source/drivers/video/vesa/vesa.c

Linking VESA video driver

[GCC    ] source/drivers/video/vesa/objs/vesa

Compiling pcnet32 network driver

[GCC    ] source/drivers/network/pcnet32/pcnet32.c

Linking pcnet32 network driver

[GCC    ] source/drivers/network/pcnet32/objs/pcnet32
File zlib-1.2.3.tar.bz2 already exists.
Extracting zlib source
Patching zlib source
Compiling zlib 1.2.3
-> adler32.c
-> compress.c
-> crc32.c
-> gzio.c
-> uncompr.c
-> deflate.c
-> trees.c
-> zutil.c
-> inflate.c
-> infback.c
-> inftrees.c
-> inffast.c
Linking zlib 1.2.3
-> objs/libz.a
Installing zlib 1.2.3 headers
-> zlib.h
-> zconf.h
File libpng-1.2.41.tar.gz already exists.
Extracting libpng source
Patching libpng source
Compiling libpng 1.2.41
-> png.c
-> pngset.c
-> pngget.c
-> pngrutil.c
-> pngtrans.c
-> pngwutil.c
-> pngread.c
-> pngrio.c
-> pngwio.c
-> pngwrite.c
-> pngrtran.c
-> pngwtran.c
-> pngmem.c
-> pngerror.c
-> pngpread.c
Linking libpng 1.2.41
-> objs/libpng.a
Installing libpng 1.2.41 headers
-> png.h
-> pngconf.h
Compiling startup library

[GCC    ] source/lib/start/arch/i386/start.S

Linking startup library

[AR     ] source/lib/start/objs/libstart.a

Compiling C library

[GCC    ] source/lib/c/arch/i386/syscall.S
[GCC    ] source/lib/c/arch/i386/getpagesize.c
[GCC    ] source/lib/c/arch/i386/setjmp.S
[GCC    ] source/lib/c/arch/i386/longjmp.S
[GCC    ] source/lib/c/arch/i386/memcpy.S
[GCC    ] source/lib/c/arch/i386/math/e_exp.S
[GCC    ] source/lib/c/arch/i386/math/e_log.S
[GCC    ] source/lib/c/arch/i386/math/s_sin.S
[GCC    ] source/lib/c/arch/i386/math/s_cos.S
[GCC    ] source/lib/c/arch/i386/math/s_floor.S
[GCC    ] source/lib/c/arch/i386/math/s_ceil.S
[GCC    ] source/lib/c/arch/i386/math/s_frexp.S
[GCC    ] source/lib/c/arch/i386/math/s_fabs.S
[GCC    ] source/lib/c/arch/i386/math/e_fmod.S
[GCC    ] source/lib/c/arch/i386/math/e_atan2.S
[GCC    ] source/lib/c/arch/i386/math/e_hypot.S
[GCC    ] source/lib/c/arch/i386/math/e_pow.S
[GCC    ] source/lib/c/arch/i386/math/s_finite.S
[GCC    ] source/lib/c/arch/i386/math/s_scalbn.S
[GCC    ] source/lib/c/arch/i386/math/e_log10.S
[GCC    ] source/lib/c/src/start.c
[GCC    ] source/lib/c/src/opendir.c
[GCC    ] source/lib/c/src/readdir.c
[GCC    ] source/lib/c/src/closedir.c
[GCC    ] source/lib/c/src/rewinddir.c
[GCC    ] source/lib/c/src/udivmoddi4.c
[GCC    ] source/lib/c/src/stdlib/malloc.c
[GCC    ] source/lib/c/src/stdlib/abort.c
[GCC    ] source/lib/c/src/stdlib/getenv.c
[GCC    ] source/lib/c/src/stdlib/strtol.c
[GCC    ] source/lib/c/src/stdlib/strtoll.c
[GCC    ] source/lib/c/src/stdlib/strtoul.c
[GCC    ] source/lib/c/src/stdlib/strtoull.c
[GCC    ] source/lib/c/src/stdlib/atoi.c
[GCC    ] source/lib/c/src/stdlib/atol.c
[GCC    ] source/lib/c/src/stdlib/atoll.c
[GCC    ] source/lib/c/src/stdlib/atof.c
[GCC    ] source/lib/c/src/stdlib/qsort.c
[GCC    ] source/lib/c/src/stdlib/bsearch.c
[GCC    ] source/lib/c/src/stdlib/abs.c
[GCC    ] source/lib/c/src/stdlib/labs.c
[GCC    ] source/lib/c/src/stdlib/llabs.c
[GCC    ] source/lib/c/src/stdlib/strtod.c
[GCC    ] source/lib/c/src/stdlib/mkstemp.c
[GCC    ] source/lib/c/src/stdlib/random.c
[GCC    ] source/lib/c/src/stdlib/srandom.c
[GCC    ] source/lib/c/src/stdlib/rand.c
[GCC    ] source/lib/c/src/stdlib/srand.c
[GCC    ] source/lib/c/src/stdlib/mktemp.c
[GCC    ] source/lib/c/src/string/memset.c
[GCC    ] source/lib/c/src/string/memcpy.c
[GCC    ] source/lib/c/src/string/memcmp.c
[GCC    ] source/lib/c/src/string/memmove.c
[GCC    ] source/lib/c/src/string/memchr.c
[GCC    ] source/lib/c/src/string/strchr.c
[GCC    ] source/lib/c/src/string/strrchr.c
[GCC    ] source/lib/c/src/string/strlen.c
[GCC    ] source/lib/c/src/string/strnlen.c
[GCC    ] source/lib/c/src/string/strcmp.c
[GCC    ] source/lib/c/src/string/strncmp.c
[GCC    ] source/lib/c/src/string/strcasecmp.c
[GCC    ] source/lib/c/src/string/strncasecmp.c
[GCC    ] source/lib/c/src/string/strdup.c
[GCC    ] source/lib/c/src/string/strndup.c
[GCC    ] source/lib/c/src/string/strcpy.c
[GCC    ] source/lib/c/src/string/strncpy.c
[GCC    ] source/lib/c/src/string/strstr.c
[GCC    ] source/lib/c/src/string/strerror.c
[GCC    ] source/lib/c/src/string/strsignal.c
[GCC    ] source/lib/c/src/string/strcat.c
[GCC    ] source/lib/c/src/string/strncat.c
[GCC    ] source/lib/c/src/string/strpbrk.c
[GCC    ] source/lib/c/src/string/strspn.c
[GCC    ] source/lib/c/src/string/strcspn.c
[GCC    ] source/lib/c/src/string/strtok_r.c
[GCC    ] source/lib/c/src/string/strtok.c
[GCC    ] source/lib/c/src/unistd/sync.c
[GCC    ] source/lib/c/src/unistd/sbrk.c
[GCC    ] source/lib/c/src/unistd/fork.c
[GCC    ] source/lib/c/src/unistd/execve.c
[GCC    ] source/lib/c/src/unistd/execv.c
[GCC    ] source/lib/c/src/unistd/execl.c
[GCC    ] source/lib/c/src/unistd/execlp.c
[GCC    ] source/lib/c/src/unistd/dup.c
[GCC    ] source/lib/c/src/unistd/dup2.c
[GCC    ] source/lib/c/src/unistd/write.c
[GCC    ] source/lib/c/src/unistd/read.c
[GCC    ] source/lib/c/src/unistd/pwrite.c
[GCC    ] source/lib/c/src/unistd/pread.c
[GCC    ] source/lib/c/src/unistd/exit.c
[GCC    ] source/lib/c/src/unistd/getdents.c
[GCC    ] source/lib/c/src/unistd/close.c
[GCC    ] source/lib/c/src/unistd/execvp.c
[GCC    ] source/lib/c/src/unistd/fchdir.c
[GCC    ] source/lib/c/src/unistd/isatty.c
[GCC    ] source/lib/c/src/unistd/lseek.c
[GCC    ] source/lib/c/src/unistd/unlink.c
[GCC    ] source/lib/c/src/unistd/readlink.c
[GCC    ] source/lib/c/src/unistd/getcwd.c
[GCC    ] source/lib/c/src/unistd/sleep.c
[GCC    ] source/lib/c/src/unistd/access.c
[GCC    ] source/lib/c/src/unistd/chdir.c
[GCC    ] source/lib/c/src/unistd/ftruncate.c
[GCC    ] source/lib/c/src/unistd/getpid.c
[GCC    ] source/lib/c/src/unistd/getppid.c
[GCC    ] source/lib/c/src/unistd/gettid.c
[GCC    ] source/lib/c/src/unistd/link.c
[GCC    ] source/lib/c/src/unistd/rmdir.c
[GCC    ] source/lib/c/src/unistd/chown.c
[GCC    ] source/lib/c/src/unistd/symlink.c
[GCC    ] source/lib/c/src/unistd/ttyname.c
[GCC    ] source/lib/c/src/unistd/pipe.c
[GCC    ] source/lib/c/src/unistd/alarm.c
[GCC    ] source/lib/c/src/unistd/fpathconf.c
[GCC    ] source/lib/c/src/unistd/getuid.c
[GCC    ] source/lib/c/src/unistd/geteuid.c
[GCC    ] source/lib/c/src/unistd/setuid.c
[GCC    ] source/lib/c/src/unistd/setreuid.c
[GCC    ] source/lib/c/src/unistd/getgid.c
[GCC    ] source/lib/c/src/unistd/getegid.c
[GCC    ] source/lib/c/src/unistd/setgid.c
[GCC    ] source/lib/c/src/unistd/setregid.c
[GCC    ] source/lib/c/src/unistd/gethostname.c
[GCC    ] source/lib/c/src/unistd/getdtablesize.c
[GCC    ] source/lib/c/src/unistd/getpgid.c
[GCC    ] source/lib/c/src/unistd/setpgid.c
[GCC    ] source/lib/c/src/unistd/getpgrp.c
[GCC    ] source/lib/c/src/unistd/setpgrp.c
[GCC    ] source/lib/c/src/fcntl/open.c
[GCC    ] source/lib/c/src/fcntl/creat.c
[GCC    ] source/lib/c/src/fcntl/fcntl.c
[GCC    ] source/lib/c/src/stdio/stdio_internal.c
[GCC    ] source/lib/c/src/stdio/streams.c
[GCC    ] source/lib/c/src/stdio/ferror.c
[GCC    ] source/lib/c/src/stdio/fgetc.c
[GCC    ] source/lib/c/src/stdio/getc.c
[GCC    ] source/lib/c/src/stdio/fgets.c
[GCC    ] source/lib/c/src/stdio/fputc.c
[GCC    ] source/lib/c/src/stdio/fputs.c
[GCC    ] source/lib/c/src/stdio/fileno.c
[GCC    ] source/lib/c/src/stdio/feof.c
[GCC    ] source/lib/c/src/stdio/fflush.c
[GCC    ] source/lib/c/src/stdio/ungetc.c
[GCC    ] source/lib/c/src/stdio/clearerr.c
[GCC    ] source/lib/c/src/stdio/fopen.c
[GCC    ] source/lib/c/src/stdio/fdopen.c
[GCC    ] source/lib/c/src/stdio/freopen.c
[GCC    ] source/lib/c/src/stdio/fclose.c
[GCC    ] source/lib/c/src/stdio/putc.c
[GCC    ] source/lib/c/src/stdio/setvbuf.c
[GCC    ] source/lib/c/src/stdio/fseek.c
[GCC    ] source/lib/c/src/stdio/ftell.c
[GCC    ] source/lib/c/src/stdio/fread.c
[GCC    ] source/lib/c/src/stdio/fwrite.c
[GCC    ] source/lib/c/src/stdio/rewind.c
[GCC    ] source/lib/c/src/stdio/perror.c
[GCC    ] source/lib/c/src/stdio/puts.c
[GCC    ] source/lib/c/src/stdio/putchar.c
[GCC    ] source/lib/c/src/stdio/rename.c
[GCC    ] source/lib/c/src/stdio/remove.c
[GCC    ] source/lib/c/src/stdio/fpurge.c
[GCC    ] source/lib/c/src/time/tzset.c
[GCC    ] source/lib/c/src/time/time_int.c
[GCC    ] source/lib/c/src/time/strftime.c
[GCC    ] source/lib/c/src/time/mktime.c
[GCC    ] source/lib/c/src/time/ctime.c
[GCC    ] source/lib/c/src/time/ctime_r.c
[GCC    ] source/lib/c/src/time/localtime.c
[GCC    ] source/lib/c/src/time/localtime_r.c
[GCC    ] source/lib/c/src/time/asctime.c
[GCC    ] source/lib/c/src/time/asctime_r.c
[GCC    ] source/lib/c/src/time/gmtime.c
[GCC    ] source/lib/c/src/time/gmtime_r.c
[GCC    ] source/lib/c/src/time/gettimeofday.c
[GCC    ] source/lib/c/src/time/ctime.c
[GCC    ] source/lib/c/src/time/time.c
[GCC    ] source/lib/c/src/time/nanosleep.c
[GCC    ] source/lib/c/src/getopt/getopt.c
[GCC    ] source/lib/c/src/getopt/getopt_long.c
[GCC    ] source/lib/c/src/getopt/getopt_long_only.c
[GCC    ] source/lib/c/src/sys/stat.c
[GCC    ] source/lib/c/src/sys/fstat.c
[GCC    ] source/lib/c/src/sys/stime.c
[GCC    ] source/lib/c/src/sys/mkdir.c
[GCC    ] source/lib/c/src/sys/ioctl.c
[GCC    ] source/lib/c/src/sys/select.c
[GCC    ] source/lib/c/src/sys/mount.c
[GCC    ] source/lib/c/src/sys/umount.c
[GCC    ] source/lib/c/src/sys/lstat.c
[GCC    ] source/lib/c/src/sys/umask.c
[GCC    ] source/lib/c/src/sys/chmod.c
[GCC    ] source/lib/c/src/sys/utime.c
[GCC    ] source/lib/c/src/sys/utimes.c
[GCC    ] source/lib/c/src/sys/wait.c
[GCC    ] source/lib/c/src/sys/wait3.c
[GCC    ] source/lib/c/src/sys/wait4.c
[GCC    ] source/lib/c/src/sys/waitpid.c
[GCC    ] source/lib/c/src/sys/socket.c
[GCC    ] source/lib/c/src/sys/connect.c
[GCC    ] source/lib/c/src/sys/getrusage.c
[GCC    ] source/lib/c/src/ctype/isalpha.c
[GCC    ] source/lib/c/src/ctype/isupper.c
[GCC    ] source/lib/c/src/ctype/isblank.c
[GCC    ] source/lib/c/src/ctype/islower.c
[GCC    ] source/lib/c/src/ctype/isdigit.c
[GCC    ] source/lib/c/src/ctype/isxdigit.c
[GCC    ] source/lib/c/src/ctype/isalnum.c
[GCC    ] source/lib/c/src/ctype/isspace.c
[GCC    ] source/lib/c/src/ctype/isprint.c
[GCC    ] source/lib/c/src/ctype/iscntrl.c
[GCC    ] source/lib/c/src/ctype/tolower.c
[GCC    ] source/lib/c/src/ctype/toupper.c
[GCC    ] source/lib/c/src/ctype/toascii.c
[GCC    ] source/lib/c/src/ctype/isgraph.c
[GCC    ] source/lib/c/src/ctype/ispunct.c
[GCC    ] source/lib/c/src/ctype/isascii.c
[GCC    ] source/lib/c/src/signal/signal.c
[GCC    ] source/lib/c/src/signal/sigaction.c
[GCC    ] source/lib/c/src/signal/kill.c
[GCC    ] source/lib/c/src/signal/killpg.c
[GCC    ] source/lib/c/src/signal/raise.c
[GCC    ] source/lib/c/src/signal/sigemptyset.c
[GCC    ] source/lib/c/src/signal/sigfillset.c
[GCC    ] source/lib/c/src/signal/sigaddset.c
[GCC    ] source/lib/c/src/signal/sigdelset.c
[GCC    ] source/lib/c/src/signal/sigismember.c
[GCC    ] source/lib/c/src/signal/sigprocmask.c
[GCC    ] source/lib/c/src/signal/sigsetjmp.c
[GCC    ] source/lib/c/src/signal/siglongjmp.c
[GCC    ] source/lib/c/src/locale/localeconv.c
[GCC    ] source/lib/c/src/locale/setlocale.c
[GCC    ] source/lib/c/src/termios/tcflush.c
[GCC    ] source/lib/c/src/termios/tcgetattr.c
[GCC    ] source/lib/c/src/termios/tcsetattr.c
[GCC    ] source/lib/c/src/termios/tcflow.c
[GCC    ] source/lib/c/src/termios/tcgetpgrp.c
[GCC    ] source/lib/c/src/termios/tcsetpgrp.c
[GCC    ] source/lib/c/src/math/s_ldexp.c
[GCC    ] source/lib/c/src/math/s_modf.c
[GCC    ] source/lib/c/src/yaosp/debug.c
[GCC    ] source/lib/c/src/yaosp/sysinfo.c
[GCC    ] source/lib/c/src/yaosp/region.c
[GCC    ] source/lib/c/src/yaosp/module.c
[GCC    ] source/lib/c/src/yaosp/yaosp.c
[GCC    ] source/lib/c/src/yaosp/ipc.c
[GCC    ] source/lib/c/src/trio/trio.c
[GCC    ] source/lib/c/src/trio/trionan.c
[GCC    ] source/lib/c/src/trio/triostr.c
[GCC    ] source/lib/c/src/pwd/getpwuid.c
[GCC    ] source/lib/c/src/pwd/getpwent.c
[GCC    ] source/lib/c/src/pwd/getpwnam.c
[GCC    ] source/lib/c/src/pwd/endpwent.c
[GCC    ] source/lib/c/src/pwd/setpwent.c
[GCC    ] source/lib/c/src/network/inet_aton.c
[GCC    ] source/lib/c/src/network/inet_ntoa.c
[GCC    ] source/lib/c/src/pthread/mutex.c
[GCC    ] source/lib/c/src/pthread/mutexattr.c
[GCC    ] source/lib/c/src/pthread/thread.c
[GCC    ] source/lib/c/src/pthread/attr.c
[GCC    ] source/lib/c/src/pthread/condition.c
[GCC    ] source/lib/c/src/regex/collate.c
[GCC    ] source/lib/c/src/regex/collcmp.c
[GCC    ] source/lib/c/src/regex/regcomp.c
[GCC    ] source/lib/c/src/regex/regerror.c
[GCC    ] source/lib/c/src/regex/regexec.c
[GCC    ] source/lib/c/src/regex/regfree.c

Linking C library

[AR     ] source/lib/c/objs/libc.a

Compiling yutil library

[GCC    ] source/lib/yutil/src/hashtable.c
[GCC    ] source/lib/yutil/src/array.c
[GCC    ] source/lib/yutil/src/string.c
[GCC    ] source/lib/yutil/src/stack.c
[GCC    ] source/lib/yutil/src/list.c
[GCC    ] source/lib/yutil/src/blockbuffer.c

Linking yutil library

[AR     ] source/lib/yutil/objs/libyutil.a

Compiling ygupatching file ncurses-5.7/include/curses.h
patching file ncurses-5.7/include/hashsize.h
patching file ncurses-5.7/include/ncurses_cfg.h
patching file ncurses-5.7/include/ncurses_def.h
patching file ncurses-5.7/include/parametrized.h
patching file ncurses-5.7/include/term.h
patching file ncurses-5.7/include/termcap.h
patching file ncurses-5.7/include/unctrl.h
patching file ncurses-5.7/ncurses/codes.c
patching file ncurses-5.7/ncurses/comp_captab.c
patching file ncurses-5.7/ncurses/expanded.c
patching file ncurses-5.7/ncurses/fallback.c
patching file ncurses-5.7/ncurses/init_keytry.h
patching file ncurses-5.7/ncurses/lib_gen.c
patching file ncurses-5.7/ncurses/lib_keyname.c
patching file ncurses-5.7/ncurses/names.c
patching file ncurses-5.7/ncurses/unctrl.c
patching file ncurses-5.7/pbuild.xml
i library

[GCC    ] source/lib/ygui/src/application.c
[GCC    ] source/lib/ygui/src/window.c
[GCC    ] source/lib/ygui/src/widget.c
[GCC    ] source/lib/ygui/src/panel.c
[GCC    ] source/lib/ygui/src/label.c
[GCC    ] source/lib/ygui/src/font.c
[GCC    ] source/lib/ygui/src/button.c
[GCC    ] source/lib/ygui/src/textfield.c
[GCC    ] source/lib/ygui/src/desktop.c
[GCC    ] source/lib/ygui/src/scrollpanel.c
[GCC    ] source/lib/ygui/src/gc.c
[GCC    ] source/lib/ygui/src/bitmap.c
[GCC    ] source/lib/ygui/src/image.c
[GCC    ] source/lib/ygui/src/menu.c
[GCC    ] source/lib/ygui/src/menuitem.c
[GCC    ] source/lib/ygui/src/menubar.c
[GCC    ] source/lib/ygui/src/textarea.c
[GCC    ] source/lib/ygui/src/dirview.c
[GCC    ] source/lib/ygui/src/layout/layout.c
[GCC    ] source/lib/ygui/src/layout/borderlayout.c
[GCC    ] source/lib/ygui/src/layout/flowlayout.c
[GCC    ] source/lib/ygui/src/render/render.c
[GCC    ] source/lib/ygui/src/image/imageloader.c
[GCC    ] source/lib/ygui/src/image/png.c
[GCC    ] source/lib/ygui/src/dialog/filechooser.c
[GCC    ] source/lib/ygui/src/border/border.c
[GCC    ] source/lib/ygui/src/border/lineborder.c

Linking ygui library

[AR     ] source/lib/ygui/objs/libygui.a
File ncurses-5.7.tar.gz already exists.
Extracting ncurses source
Patching ncurses source
Compiling ncurses 5.7
-> ncurses/./tty/hardscroll.c
-> ncurses/./tty/hashmap.c
-> ncurses/./base/lib_addch.c
-> ncurses/./base/lib_addstr.c
-> ncurses/./base/lib_beep.c
-> ncurses/./base/lib_bkgd.c
-> ncurses/./base/lib_box.c
-> ncurses/./base/lib_chgat.c
-> ncurses/./base/lib_clear.c
-> ncurses/./base/lib_clearok.c
-> ncurses/./base/lib_clrbot.c
-> ncurses/./base/lib_clreol.c
-> ncurses/./base/lib_color.c
-> ncurses/./base/lib_colorset.c
-> ncurses/./base/lib_delch.c
-> ncurses/./base/lib_delwin.c
-> ncurses/./base/lib_echo.c
-> ncurses/./base/lib_endwin.c
-> ncurses/./base/lib_erase.c
-> ncurses/./base/lib_flash.c
-> ncurses/lib_gen.c
-> ncurses/./base/lib_getch.c
-> ncurses/./base/lib_getstr.c
-> ncurses/./base/lib_hline.c
-> ncurses/./base/lib_immedok.c
-> ncurses/./base/lib_inchstr.c
-> ncurses/./base/lib_initscr.c
-> ncurses/./base/lib_insch.c
-> ncurses/./base/lib_insdel.c
-> ncurses/./base/lib_insnstr.c
-> ncurses/./base/lib_instr.c
-> ncurses/./base/lib_isendwin.c
-> ncurses/./base/lib_leaveok.c
-> ncurses/./base/lib_mouse.c
-> ncurses/./base/lib_move.c
-> ncurses/./tty/lib_mvcur.c
-> ncurses/./base/lib_mvwin.c
-> ncurses/./base/lib_newterm.c
-> ncurses/./base/lib_newwin.c
-> ncurses/./base/lib_nl.c
-> ncurses/./base/lib_overlay.c
-> ncurses/./base/lib_pad.c
-> ncurses/./base/lib_printw.c
-> ncurses/./base/lib_redrawln.c
-> ncurses/./base/lib_refresh.c
-> ncurses/./base/lib_restart.c
-> ncurses/./base/lib_scanw.c
-> ncurses/./base/lib_screen.c
-> ncurses/./base/lib_scroll.c
-> ncurses/./base/lib_scrollok.c
-> ncurses/./base/lib_scrreg.c
-> ncurses/./base/lib_set_term.c
-> ncurses/./base/lib_slk.c
-> ncurses/./base/lib_slkatr_set.c
-> ncurses/./base/lib_slkatrof.c
-> ncurses/./base/lib_slkatron.c
-> ncurses/./base/lib_slkatrset.c
-> ncurses/./base/lib_slkattr.c
-> ncurses/./base/lib_slkclear.c
-> ncurses/./base/lib_slkcolor.c
-> ncurses/./base/lib_slkinit.c
-> ncurses/./base/lib_slklab.c
-> ncurses/./base/lib_slkrefr.c
-> ncurses/./base/lib_slkset.c
-> ncurses/./base/lib_slktouch.c
-> ncurses/./base/lib_touch.c
-> ncurses/./tty/lib_tstp.c
-> ncurses/./base/lib_ungetch.c
-> ncurses/./tty/lib_vidattr.c
-> ncurses/./base/lib_vline.c
-> ncurses/./base/lib_wattroff.c
-> ncurses/./base/lib_wattron.c
-> ncurses/./base/lib_winch.c
-> ncurses/./base/lib_window.c
-> ncurses/./base/nc_panel.c
-> ncurses/./base/safe_sprintf.c
-> ncurses/./tty/tty_update.c
-> ncurses/./trace/varargs.c
-> ncurses/./base/memmove.c
-> ncurses/./base/vsscanf.c
-> ncurses/./base/lib_freeall.c
-> ncurses/expanded.c
-> ncurses/./base/legacy_coding.c
-> ncurses/./base/lib_dft_fgbg.c
-> ncurses/./tinfo/lib_print.c
-> ncurses/./base/resizeterm.c
-> ncurses/./tinfo/use_screen.c
-> ncurses/./base/use_window.c
-> ncurses/./base/wresize.c
-> ncurses/./tinfo/access.c
-> ncupatching file readline-6.0/bind.c
patching file readline-6.0/complete.c
patching file readline-6.0/config.h
patching file readline-6.0/display.c
patching file readline-6.0/histexpand.c
patching file readline-6.0/input.c
patching file readline-6.0/misc.c
patching file readline-6.0/pbuild.xml
patching file readline-6.0/readline.c
patching file readline-6.0/search.c
patching file readline-6.0/shell.c
patching file readline-6.0/tilde.c
patching file readline-6.0/undo.c
patching file readline-6.0/util.c
patching file freetype-2.3.11/include/freetype/config/ftmodule.h
patching file freetype-2.3.11/objs/README
patching file freetype-2.3.11/pbuild.xml
patching file bzip2-1.0.5/pbuild.xml
patching file Python-2.5.4/Lib/yaosp.py
patching file Python-2.5.4/Modules/_yaospmodule.c
patching file Python-2.5.4/Modules/config.c
patching file Python-2.5.4/Modules/getpath.c
patching file Python-2.5.4/Modules/posixmodule.c
patching file Python-2.5.4/Python/getplatform.c
patching file Python-2.5.4/pbuild.xml
patching file Python-2.5.4/pyconfig.h
rses/./tinfo/add_tries.c
-> ncurses/./tinfo/alloc_ttype.c
-> ncurses/codes.c
-> ncurses/./tinfo/comp_error.c
-> ncurses/./tinfo/db_iterator.c
-> ncurses/./tinfo/doalloc.c
-> ncurses/./tinfo/entries.c
-> ncurses/fallback.c
-> ncurses/./tinfo/free_ttype.c
-> ncurses/./tinfo/getenv_num.c
-> ncurses/./tinfo/home_terminfo.c
-> ncurses/./tinfo/init_keytry.c
-> ncurses/./tinfo/lib_acs.c
-> ncurses/./tinfo/lib_baudrate.c
-> ncurses/./tinfo/lib_cur_term.c
-> ncurses/./tinfo/lib_data.c
-> ncurses/./tinfo/lib_has_cap.c
-> ncurses/./tinfo/lib_kernel.c
-> ncurses/lib_keyname.c
-> ncurses/./tinfo/lib_longname.c
-> ncurses/./tinfo/lib_napms.c
-> ncurses/./tinfo/lib_options.c
-> ncurses/./tinfo/lib_raw.c
-> ncurses/./tinfo/lib_setup.c
-> ncurses/./tinfo/lib_termcap.c
-> ncurses/./tinfo/lib_termname.c
-> ncurses/./tinfo/lib_tgoto.c
-> ncurses/./tinfo/lib_ti.c
-> ncurses/./tinfo/lib_tparm.c
-> ncurses/./tinfo/lib_tputs.c
-> ncurses/./trace/lib_trace.c
-> ncurses/./tinfo/lib_ttyflags.c
-> ncurses/./tty/lib_twait.c
-> ncurses/./tinfo/name_match.c
-> ncurses/names.c
-> ncurses/./tinfo/read_entry.c
-> ncurses/./tinfo/read_termcap.c
-> ncurses/./tinfo/setbuf.c
-> ncurses/./tinfo/strings.c
-> ncurses/./base/tries.c
-> ncurses/./tinfo/trim_sgr0.c
-> ncurses/unctrl.c
-> ncurses/./trace/visbuf.c
-> ncurses/./tinfo/alloc_entry.c
-> ncurses/./tinfo/captoinfo.c
-> ncurses/comp_captab.c
-> ncurses/./tinfo/comp_expand.c
-> ncurses/./tinfo/comp_hash.c
-> ncurses/./tinfo/comp_parse.c
-> ncurses/./tinfo/comp_scan.c
-> ncurses/./tinfo/parse_entry.c
-> ncurses/./tinfo/write_entry.c
-> ncurses/./base/define_key.c
-> ncurses/./tinfo/hashed_db.c
-> ncurses/./base/key_defined.c
-> ncurses/./base/keybound.c
-> ncurses/./base/keyok.c
-> ncurses/./base/version.c
Linking ncurses 5.7
-> objs/libncurses.a
Installing ncurses 5.7 headers
-> curses.h
-> ncurses_dll.h
-> termcap.h
-> unctrl.h
File readline-6.0.tar.gz already exists.
Extracting readline source
Patching readline source
Compiling readline 6.0
-> readline.c
-> funmap.c
-> keymaps.c
-> vi_mode.c
-> parens.c
-> rltty.c
-> complete.c
-> bind.c
-> isearch.c
-> display.c
-> signals.c
-> util.c
-> kill.c
-> undo.c
-> macro.c
-> input.c
-> callback.c
-> terminal.c
-> xmalloc.c
-> history.c
-> histsearch.c
-> histexpand.c
-> histfile.c
-> nls.c
-> search.c
-> shell.c
-> savestring.c
-> text.c
-> misc.c
-> compat.c
-> mbutil.c
-> tilde.c
Linking readline 6.0
-> objs/libreadline.a
Installing readline 6.0 headers
-> chardefs.h
-> history.h
-> keymaps.h
-> readline.h
-> rlconf.h
-> rlstdc.h
-> rltypedefs.h
-> tilde.h
File freetype-2.3.11.tar.bz2 already exists.
Extracting freetype source
Patching freetype source
Compiling freetype 2.3.11
-> src/autofit/autofit.c
-> src/base/ftbase.c
-> src/base/ftinit.c
-> src/base/ftsystem.c
-> src/base/ftglyph.c
-> src/base/ftbitmap.c
-> src/base/fttype1.c
-> src/truetype/truetype.c
-> src/sfnt/sfnt.c
-> src/smooth/smooth.c
Linking freetype 2.3.9
-> objs/libfreetype.a
Installing freetype 2.3.11 headers
File bzip2-1.0.5.tar.gz already exists.
Extracting bzip2 source
Patching bzip2 source
Compiling bzip2 1.0.5
-> blocksort.c
-> huffman.c
-> crctable.c
-> randtable.c
-> compress.c
-> decompress.c
-> bzlib.c
Linking bzip2 1.0.5
-> objs/libbzip2.a
Installing bzip2 1.0.5 header
File python-2.5.4.tar.bz2 already exists.
Extracting python source
Patching python source
Compiling Python 2.5.4
-> Modules/_typesmodule.c
-> Modules/getbuildinfo.c
-> Modules/_yaospmodule.c
-> Parser/acceler.c
-> Parser/grammar1.c
-> Parser/listnode.c
-> Parser/node.c
-> Parser/parser.c
-> Parser/parsetok.c
-> Parser/bitset.c
-> Parser/metagrammar.c
-> Parser/firstsets.c
-> Parser/grammar.c
-> Parser/pgen.c
-> Parser/myreadline.c
-> Parser/tokenizer.c
-> Objects/abstract.c
-> Objects/boolobject.c
-> Objects/bufferobject.c
-> Objects/cellobject.c
-> Objects/classobject.c
-> Objects/cobject.c
-> Objects/codeobject.c
-> Objects/complexobject.c
-> Objects/descrobject.c
-> Objects/enumobject.c
-> Objects/exceptions.c
-> Objects/genobject.c
-> Objects/fileobject.c
-> Objects/floatobject.c
-> Objects/frameobject.c
-> Objecpatching file bash-4.0/arrayfunc.c
patching file bash-4.0/bashline.c
patching file bash-4.0/builtins/alias.c
patching file bash-4.0/builtins/bind.c
patching file bash-4.0/builtins/break.c
patching file bash-4.0/builtins/builtext.h
patching file bash-4.0/builtins/builtin.c
patching file bash-4.0/builtins/builtins.c
patching file bash-4.0/builtins/caller.c
patching file bash-4.0/builtins/cd.c
patching file bash-4.0/builtins/colon.c
patching file bash-4.0/builtins/command.c
patching file bash-4.0/builtins/complete.c
patching file bash-4.0/builtins/declare.c
patching file bash-4.0/builtins/declare.def
patching file bash-4.0/builtins/echo.c
patching file bash-4.0/builtins/enable.c
patching file bash-4.0/builtins/eval.c
patching file bash-4.0/builtins/exec.c
patching file bash-4.0/builtins/exit.c
patching file bash-4.0/builtins/exit.def
patching file bash-4.0/builtins/fc.c
patching file bash-4.0/builtins/fc.def
patching file bash-4.0/builtins/fg_bg.c
patching file bash-4.0/builtins/getopts.c
patching file bash-4.0/builtins/hash.c
patching file bash-4.0/builtins/help.c
patching file bash-4.0/builtins/history.c
patching file bash-4.0/builtins/jobs.c
patching file bash-4.0/builtins/kill.c
patching file bash-4.0/builtins/let.c
patching file bash-4.0/builtins/mapfile.c
patching file bash-4.0/builtins/pipesize.h
patching file bash-4.0/builtins/printf.c
patching file bash-4.0/builtins/pushd.c
patching file bash-4.0/builtins/read.c
patching file bash-4.0/builtins/read.def
patching file bash-4.0/builtins/return.c
patching file bash-4.0/builtins/set.c
patching file bash-4.0/builtins/setattr.c
patching file bash-4.0/builtins/shift.c
patching file bash-4.0/builtins/shopt.c
patching file bash-4.0/builtins/source.c
patching file bash-4.0/builtins/suspend.c
patching file bash-4.0/builtins/test.c
patching file bash-4.0/builtins/times.c
patching file bash-4.0/builtins/trap.c
patching file bash-4.0/builtins/type.c
patching file bash-4.0/builtins/ulimit.c
patching file bash-4.0/builtins/umask.c
patching file bash-4.0/builtins/wait.c
patching file bash-4.0/config-bot.h
patching file bash-4.0/config.h
patching file bash-4.0/doc/bash.1
patching file bash-4.0/doc/bashref.texi
patching file bash-4.0/eval.c
patching file bash-4.0/execute_cmd.c
patching file bash-4.0/externs.h
patching file bash-4.0/externs.h.orig
patching file bash-4.0/jobs.c
patching file bash-4.0/jobs.h
patching file bash-4.0/lib/glob/glob.c
patching file bash-4.0/lib/readline/display.c
patching file bash-4.0/lib/readline/readline.h
patching file bash-4.0/lib/readline/terminal.c
patching file bash-4.0/lib/readline/tilde.c
patching file bash-4.0/lib/sh/netopen.c
patching file bash-4.0/lib/sh/ufuncs.c
patching file bash-4.0/lib/sh/winsize.c
patching file bash-4.0/parse.y
patching file bash-4.0/parse.y.orig
patching file bash-4.0/patchlevel.h
patching file bash-4.0/pathnames.h
patching file bash-4.0/pbuild.xml
patching file bash-4.0/pcomplete.c
patching file bash-4.0/shell.c
patching file bash-4.0/sig.c
patching file bash-4.0/signames.h
patching file bash-4.0/subst.c
patching file bash-4.0/syntax.c
patching file bash-4.0/trap.c
patching file bash-4.0/variables.c
patching file bash-4.0/version.h
patching file bash-4.0/y.tab.c
patching file bash-4.0/y.tab.h
ts/funcobject.c
-> Objects/intobject.c
-> Objects/iterobject.c
-> Objects/listobject.c
-> Objects/longobject.c
-> Objects/dictobject.c
-> Objects/methodobject.c
-> Objects/moduleobject.c
-> Objects/object.c
-> Objects/obmalloc.c
-> Objects/rangeobject.c
-> Objects/setobject.c
-> Objects/sliceobject.c
-> Objects/stringobject.c
-> Objects/structseq.c
-> Objects/tupleobject.c
-> Objects/typeobject.c
-> Objects/weakrefobject.c
-> Objects/unicodeobject.c
-> Objects/unicodectype.c
-> Python/Python-ast.c
-> Python/asdl.c
-> Python/ast.c
-> Python/bltinmodule.c
-> Python/ceval.c
-> Python/compile.c
-> Python/codecs.c
-> Python/errors.c
-> Python/frozen.c
-> Python/frozenmain.c
-> Python/future.c
-> Python/getargs.c
-> Python/getcompiler.c
-> Python/getcopyright.c
-> Python/getmtime.c
-> Python/getplatform.c
-> Python/getversion.c
-> Python/graminit.c
-> Python/import.c
-> Python/importdl.c
-> Python/marshal.c
-> Python/modsupport.c
-> Python/mystrtoul.c
-> Python/mysnprintf.c
-> Python/pyarena.c
-> Python/pyfpe.c
-> Python/pystate.c
-> Python/pythonrun.c
-> Python/structmember.c
-> Python/symtable.c
-> Python/sysmodule.c
-> Python/traceback.c
-> Python/getopt.c
-> Python/pystrtod.c
-> Modules/config.c
-> Modules/getpath.c
-> Modules/main.c
-> Modules/gcmodule.c
-> Modules/errnomodule.c
-> Modules/_sre.c
-> Modules/_codecsmodule.c
-> Modules/zipimport.c
-> Modules/symtablemodule.c
-> Modules/posixmodule.c
-> Modules/python.c
-> Python/sigcheck.c
-> Parser/intrcheck.c
-> Modules/readline.c
-> Modules/_cursesmodule.c
-> Modules/timemodule.c
-> Modules/_struct.c
-> Modules/bz2module.c
Linking Python 2.5.4
-> objs/python
Installing python binary
Installing python libraries ...
-> site.py
-> os.py
-> copy_reg.py
-> posixpath.py
-> stat.py
-> types.py
-> yaosp.py
-> tarfile.py
-> shutil.py
-> struct.py
-> copy.py
-> curses/__init__.py
-> curses/ascii.py
-> curses/has_key.py
-> curses/panel.py
-> curses/textpad.py
-> curses/wrapper.py
File bash-4.0.tar.gz already exists.
Extracting bash source
Patching bash source
Compiling bash 4.0
-> shell.c
-> eval.c
-> y.tab.c
-> general.c
-> make_cmd.c
-> print_cmd.c
-> dispose_cmd.c
-> execute_cmd.c
-> variables.c
-> copy_cmd.c
-> error.c
-> expr.c
-> flags.c
-> jobs.c
-> subst.c
-> hashcmd.c
-> hashlib.c
-> mailcheck.c
-> trap.c
-> input.c
-> unwind_prot.c
-> pathexp.c
-> sig.c
-> test.c
-> version.c
-> alias.c
-> array.c
-> arrayfunc.c
-> assoc.c
-> braces.c
-> bracecomp.c
-> bashhist.c
-> bashline.c
-> list.c
-> stringlib.c
-> locale.c
-> findcmd.c
-> redir.c
-> pcomplete.c
-> pcomplib.c
-> syntax.c
-> xmalloc.c
-> lib/sh/clktck.c
-> lib/sh/clock.c
-> lib/sh/getenv.c
-> lib/sh/oslib.c
-> lib/sh/setlinebuf.c
-> lib/sh/strnlen.c
-> lib/sh/itos.c
-> lib/sh/zread.c
-> lib/sh/zwrite.c
-> lib/sh/shtty.c
-> lib/sh/shmatch.c
-> lib/sh/eaccess.c
-> lib/sh/netconn.c
-> lib/sh/netopen.c
-> lib/sh/timeval.c
-> lib/sh/makepath.c
-> lib/sh/pathcanon.c
-> lib/sh/pathphys.c
-> lib/sh/tmpfile.c
-> lib/sh/stringlist.c
-> lib/sh/stringvec.c
-> lib/sh/spell.c
-> lib/sh/shquote.c
-> lib/sh/strtrans.c
-> lib/sh/strindex.c
-> lib/sh/snprintf.c
-> lib/sh/mailstat.c
-> lib/sh/fmtulong.c
-> lib/sh/fmtullong.c
-> lib/sh/fmtumax.c
-> lib/sh/xstrchr.c
-> lib/sh/zcatfd.c
-> lib/sh/zmapfd.c
-> lib/sh/winsize.c
-> lib/sh/wcsdup.c
-> lib/sh/fpurge.c
-> lib/sh/zgetline.c
-> lib/sh/mbscmp.c
-> lib/sh/uconvert.c
-> lib/sh/ufuncs.c
-> lib/sh/casemod.c
-> lib/sh/fdprintf.c
-> lib/sh/input_avail.c
-> lib/glob/glob.c
-> lib/glob/strmatch.c
-> lib/glob/smatch.c
-> lib/glob/xmbsrtowcs.c
-> builtins/builtins.c
-> builtins/alias.c
-> builtins/bind.c
-> builtins/break.c
-> builtins/builtin.c
-> builtins/caller.c
-> builtins/cd.c
-> builtins/colon.c
-> builtins/command.c
-> builtins/common.c
-> builtins/declare.c
-> builtins/echo.c
-> builtins/enable.c
-> builtins/eval.c
-> builtins/evalfile.c
-> builtins/evalstring.c
-> builtins/exec.c
-> builtins/exit.c
-> builtins/fc.c
-> builtins/fg_bg.c
-> builtins/hash.c
-> builtins/help.c
-> builtins/history.c
-> builtins/jobs.c
-> builtins/kill.c
-> builtins/let.c
-> builtins/mapfile.c
-> builtins/pushd.c
-> builtins/read.c
-> builtins/return.c
-> builtins/set.c
-> builtins/setattr.c
-> builtins/shift.c
-> builtins/source.c
-> builtins/suspend.c
-> builtins/test.c
-> builtins/times.c
-> builtins/trap.c
-> builtins/type.c
-> builtins/ulimit.c
-> builtins/umask.c
-> builtins/wait.c
-> builtins/getopts.c
-> builtins/shopt.c
-> builtins/printf.c
-> builtins/getopt.c
-> builtins/bashgetopt.c
-> builtins/complete.c
-> lib/readline/readline.c
-> lib/readline/vi_mode.c
-> lib/readline/funmap.c
-> lib/readline/keymaps.c
-> lib/readline/parens.c
-> lib/readline/search.c
-> lib/readline/rltty.c
-> lib/readline/complete.c
-> lib/readline/bind.c
-> lib/readline/isearch.c
-> lib/readline/display.c
-> lib/readline/signals.c
-> lib/readline/util.c
-> lib/readline/kill.c
-> lib/readline/undo.c
-> lib/readline/macro.c
-> lib/readline/input.c
-> lib/readline/callback.c
-> lib/readline/terminal.c
-> lib/readline/text.c
-> lib/readline/nls.c
-> lib/readline/misc.c
-> lib/readline/history.c
-> lib/readline/histexpand.c
-> lib/readline/histfile.c
-> lib/readline/histsearch.c
-> lib/readline/savestring.c
-> lib/readline/mbutil.c
-> lib/readline/tilde.c
-> lib/readline/compat.c
Linking bash 4.0
-> objs/bash
Installing bash binary
Compiling init application

[GCC    ] source/applications/init/init.c

Linking init application

[GCC    ] source/applications/init/objs/init

Compiling list shell command

[GCC    ] source/applications/shelltools/list/list.c

Linking list shell command

[GCC    ] source/applications/shelltools/list/objs/list

Compiling stat shell command

[GCC    ] source/applications/shelltools/stat/stat.c

Linking stat shell command

[GCC    ] source/applications/shelltools/stat/objs/stat

Compiling proclist shell command

[GCC    ] source/applications/shelltools/proclist/proclist.c

Linking proclist shell command

[GCC    ] source/applications/shelltools/proclist/objs/proclist

Compiling date shell command

[GCC    ] source/applications/shelltools/date/date.c

Linking date shell command

[GCC    ] source/applications/shelltools/date/objs/date

Compiling cat shell command

[GCC    ] source/applications/shelltools/cat/cat.c

Linking cat shell command

[GCC    ] source/applications/shelltools/cat/objs/cat

Compiling mount shell command

[GCC    ] source/applications/shelltools/mount/mount.c

Linking mount shell command

[GCC    ] source/applications/shelltools/mount/objs/mount

Compiling makedir shell command

[GCC    ] source/applications/shelltools/makedir/makedir.c

Linking makedir shell command

[GCC    ] source/applications/shelltools/makedir/objs/makedir

Compiling load_module shell command

[GCC    ] source/applications/shelltools/load_module/load_module.c

Linking load_module application

[GCC    ] source/applications/shelltools/load_module/objs/load_module

Compiling ramdiskctrl shell command

[GCC    ] source/applications/shelltools/ramdiskctrl/ramdiskctrl.c

Linking ramdiskctrl shell command

[GCC    ] source/applications/shelltools/ramdiskctrl/objs/ramdiskctrl

Compiling touch shell command

[GCC    ] source/applications/shelltools/touch/touch.c

Linking touch shell command

[GCC    ] source/applications/shelltools/touch/objs/touch

Compiling remdir shell command

[GCC    ] source/applications/shelltools/remdir/remdir.c

Linking remdir shell command

[GCC    ] source/applications/shelltools/remdir/objs/remdir

Compiling remove shell command

[GCC    ] source/applications/shelltools/remove/remove.c

Linking remove shell command

[GCC    ] source/applications/shelltools/remove/objs/remove

Compiling uptime shell command

[GCC    ] source/applications/shelltools/uptime/uptime.c

Linking uptime shell command

[GCC    ] source/applications/shelltools/uptime/objs/uptime

Compiling reboot shell command

[GCC    ] source/applications/shelltools/reboot/reboot.c

Linking reboot shell command

[GCC    ] source/applications/shelltools/reboot/objs/reboot

Compiling halt shell command

[GCC    ] source/applications/shelltools/halt/halt.c

Linking halt shell command

[GCC    ] source/applications/shelltools/halt/objs/halt

Compiling symlink shell command

[GCC    ] source/applications/shelltools/symlink/symlink.c

Linking symlink application

[GCC    ] source/applications/shelltools/symlink/objs/symlink

Compiling copy shell command

[GCC    ] source/applications/shelltools/copy/copy.c

Linking copy application

[GCC    ] source/applications/shelltools/copy/objs/copy

Compiling unmount shell command

[GCC    ] source/applications/shelltools/unmount/unmount.c

Linking unmount shell command

[GCC    ] source/applications/shelltools/unmount/objs/unmount

Compiling clear shell command

[GCC    ] source/applications/shelltools/clear/clear.c

Linking clear shell command

[GCC    ] source/applications/shelltools/clear/objs/clear

Compiling listpci shell command

[GCC    ] source/applications/listpci/listpci.c
[GCC    ] source/applications/listpci/deviceid.c

Linking listpci application

[GCC    ] source/applications/listpci/objs/listpci

Compiling sysinfo shell command

[GCC    ] source/applications/systeminfo/sysinfo.c

Linking systeminfo application

[GCC   ] source/applications/systeminfo/objs/systeminfo
Compiling guiserver application

[GCC    ] source/applications/guiserver/src/guiserver.c
[GCC    ] source/applications/guiserver/src/bitmap.c
[GCC    ] source/applications/guiserver/src/graphicsdriver.c
[GCC    ] source/applications/guiserver/src/fontmanager.c
[GCC    ] source/applications/guiserver/src/input.c
[GCC    ] source/applications/guiserver/src/mouse.c
[GCC    ] source/applications/guiserver/src/application.c
[GCC    ] source/applications/guiserver/src/window.c
[GCC    ] source/applications/guiserver/src/windowmanager.c
[GCC    ] source/applications/guiserver/src/region.c
[GCC    ] source/applications/guiserver/src/render.c
[GCC    ] source/applications/guiserver/src/splash.c
[GCC    ] source/applications/guiserver/src/arch/i386/graphicsdriver_i386.c
[GCC    ] source/applications/guiserver/driver/video/vesa/vesa.c
[GCC    ] source/applications/guiserver/driver/decorator/default/default.c

Linking guiserver application

[GCC    ] source/applications/guiserver/objs/guiserver
Installing guiserver
Downloading DejaVu fonts
File dejavu-fonts-ttf-2.30.tar.bz2 already exists.
Installing fonts
Compiling irc_client application

[GCC    ] source/applications/irc_client/main.c
[GCC    ] source/applications/irc_client/core/eventmanager.c
[GCC    ] source/applications/irc_client/ui/ui.c
[GCC    ] source/applications/irc_client/ui/view.c
[GCC    ] source/applications/irc_client/ui/server_view.c
[GCC    ] source/applications/irc_client/ui/channel_view.c
[GCC    ] source/applications/irc_client/network/irc.c
[GCC    ] source/applications/irc_client/network/chan.c

Linking init application

[GCC    ] source/applications/irc_client/objs/irc_client
Compiling startgui application

[GCC    ] source/applications/startgui/startgui.c

Linking startgui application

[GCC    ] source/applications/startgui/objs/startgui
Compiling taskbar application

[GCC    ] source/applications/taskbar/taskbar.c
[GCC    ] source/applications/taskbar/window_list.c
[GCC    ] source/applications/taskbar/plugin/datetime/datetime.c
[GCC    ] source/applications/taskbar/plugin/cpuload/cpuload.c
[GCC    ] source/applications/taskbar/plugin/memoryusage/memoryusage.c

Linking taskbar application

[GCC    ] source/applications/taskbar/objs/taskbar
Compiling terminal application

[GCC    ] source/applications/terminal/main.c
[GCC    ] source/applications/terminal/terminal.c
[GCC    ] source/applications/terminal/term_widget.c
[GCC    ] source/applications/terminal/buffer.c
[GCC    ] source/applications/terminal/history.c

Linking terminal application

[GCC    ] source/applications/terminal/objs/terminal
Compiling texteditor application

[GCC    ] source/applications/texteditor/main.c

Linking texteditor application

[GCC    ] source/applications/texteditor/objs/texteditor
Creating bootable ISO9660 CD-ROM image

[MKISOFS] yaosp.iso
Build done.
